
main:     file format elf64-littleriscv

Contents of section .text:
 80000000 f32240f1 63900202 17310100 130181a8  ."@.c....1......
 80000010 6f008020 13000000 13000000 13000000  o.. ............
 80000020 6f004000 13000000 13000000 13000000  o.@.............
 80000030 73005010 6ff01fff 130101ff 23341100  s.P.o.......#4..
 80000040 23308100 13040101 17250000 1305854f  #0.......%.....O
 80000050 ef204042 13000000 83308100 03340100  . @B.....0...4..
 80000060 13010101 67800000 130101ff 23341100  ....g.......#4..
 80000070 23308100 13040101 17250000 1305054d  #0.......%.....M
 80000080 ef20403f 13000000 83308100 03340100  . @?.....0...4..
 80000090 13010101 67800000 130101ff 23341100  ....g.......#4..
 800000a0 23308100 13040101 17250000 1305854a  #0.......%.....J
 800000b0 ef20403c 13000000 83308100 03340100  . @<.....0...4..
 800000c0 13010101 67800000 130101ff 23341100  ....g.......#4..
 800000d0 23308100 13040101 17250000 13050548  #0.......%.....H
 800000e0 ef204039 13000000 83308100 03340100  . @9.....0...4..
 800000f0 13010101 67800000 130101ff 23341100  ....g.......#4..
 80000100 23308100 13040101 17250000 13058545  #0.......%.....E
 80000110 ef204036 13000000 83308100 03340100  . @6.....0...4..
 80000120 13010101 67800000 130101ff 23341100  ....g.......#4..
 80000130 23308100 13040101 17250000 13050543  #0.......%.....C
 80000140 ef204033 13000000 83308100 03340100  . @3.....0...4..
 80000150 13010101 67800000 130101ff 23341100  ....g.......#4..
 80000160 23308100 13040101 17250000 13058540  #0.......%.....@
 80000170 ef204030 13000000 83308100 03340100  . @0.....0...4..
 80000180 13010101 67800000 130101ff 23341100  ....g.......#4..
 80000190 23308100 13040101 17250000 1305053e  #0.......%.....>
 800001a0 ef20402d 13000000 83308100 03340100  . @-.....0...4..
 800001b0 13010101 67800000 130101ff 23341100  ....g.......#4..
 800001c0 23308100 13040101 17250000 1305853b  #0.......%.....;
 800001d0 ef20402a 13000000 83308100 03340100  . @*.....0...4..
 800001e0 13010101 67800000 130101ff 23341100  ....g.......#4..
 800001f0 23308100 13040101 17250000 13050539  #0.......%.....9
 80000200 ef204027 13000000 83308100 03340100  . @'.....0...4..
 80000210 13010101 67800000 130101fd 23341102  ....g.......#4..
 80000220 23308102 13040103 93070500 2338b4fc  #0..........#8..
 80000230 232ef4fc 93071000 2326f4fe 6f000005  #.......#&..o...
 80000240 8327c4fe 93973700 033704fd b307f700  .'....7..7......
 80000250 83b70700 13850700 ef10c016 93070500  ................
 80000260 2324f4fe 17270000 1307c728 832784fe  #$...'.....(.'..
 80000270 93973700 b307f700 83b70700 e7800700  ..7.............
 80000280 8327c4fe 9b871700 2326f4fe 8327c4fe  .'......#&...'..
 80000290 13870700 8327c4fd 1b070700 9b870700  .....'..........
 800002a0 e340f7fa ef005042 ef00404e ef105041  .@....PB..@N..PA
 800002b0 ef10d060 ef10107d 93070000 13850700  ...`...}........
 800002c0 83308102 03340102 13010103 67800000  .0...4......g...
 800002d0 130101fd 23348102 13040103 233ca4fc  ....#4......#<..
 800002e0 2338b4fc b7070080 93c7f7ff 2326f4fe  #8..........#&..
 800002f0 232204fe 6f00c006 832744fe 033704fd  #"..o....'D..7..
 80000300 b307f700 83c70700 93c71700 93f7f70f  ................
 80000310 63820704 832744fe 93972700 033784fd  c....'D...'..7..
 80000320 b307f700 03a70700 8327c4fe 9b870700  .........'......
 80000330 6352f702 832744fe 93972700 033784fd  cR...'D...'..7..
 80000340 b307f700 83a70700 2326f4fe 832744fe  ........#&...'D.
 80000350 2324f4fe 832744fe 9b871700 2322f4fe  #$...'D.....#"..
 80000360 832744fe 1b870700 93074000 e3d6e7f8  .'D.......@.....
 80000370 832784fe 13850700 03348102 13010103  .'.......4......
 80000380 67800000 130101ee 233c1110 23388110  g.......#<..#8..
 80000390 23349110 23302111 233c310f 2338410f  #4..#0!.#<1.#8A.
 800003a0 2334510f 2330610f 233c710d 2338810d  #4Q.#0a.#<q.#8..
 800003b0 2334910d 2330a10d 233cb10b 13040112  #4..#0..#<......
 800003c0 93070500 2338b4f2 232ef4f2 8324c4f3  ....#8..#....$..
 800003d0 93870400 9387f7ff 233cf4f6 93870400  ........#<......
 800003e0 13880700 93080000 9357b803 93965800  .........W....X.
 800003f0 b3e6d700 13165800 93070100 2334f4ee  ......X.....#4..
 80000400 0327c4f3 93070700 9387f7ff 2338f4f6  .'..........#8..
 80000410 93070700 138c0700 930c0000 9357bc03  .............W..
 80000420 939b5c00 b3eb7701 131b5c00 93070700  ..\...w...\.....
 80000430 2330f4f2 233404f2 833704f2 93d7b703  #0..#4...7......
 80000440 833684f2 939a5600 b3ea5701 833704f2  .6....V...W..7..
 80000450 139a5700 93070700 93972700 9387f700  ..W.......'.....
 80000460 93d74700 93974700 3301f140 93070100  ..G...G.3..@....
 80000470 93873700 93d72700 93972700 2334f4f6  ..7...'...'.#4..
 80000480 8327c4f3 13870700 1307f7ff 2330e4f6  .'..........#0..
 80000490 13870700 2338e4f0 233c04f0 033704f1  ....#8..#<...7..
 800004a0 1357b703 833684f1 93995600 b3693701  .W...6....V..i7.
 800004b0 033704f1 13195700 13870700 2330e4f0  .7....W.....#0..
 800004c0 233404f0 033704f0 1357b703 833684f0  #4...7...W...6..
 800004d0 939f5600 b36ff701 033704f0 131f5700  ..V..o...7....W.
 800004e0 93972700 9387f700 93d74700 93974700  ..'.......G...G.
 800004f0 3301f140 93070100 93873700 93d72700  3..@......7...'.
 80000500 93972700 233cf4f4 8327c4f3 13870700  ..'.#<...'......
 80000510 1307f7ff 2338e4f4 13870700 2338e4ee  ....#8......#8..
 80000520 233c04ee 033704ef 1357d703 833684ef  #<...7...W...6..
 80000530 939e3600 b36ed701 033704ef 131e3700  ..6..n...7....7.
 80000540 13870700 130d0700 930d0000 1357dd03  .............W..
 80000550 93933d00 b3637700 13133d00 9387f700  ..=..cw...=.....
 80000560 93d74700 93974700 3301f140 93070100  ..G...G.3..@....
 80000570 93870700 2334f4f4 232604f8 6f00c003  ....#4..#&..o...
 80000580 033784f5 8327c4f8 93972700 b307f700  .7...'....'.....
 80000590 37070080 1347f7ff 23a0e700 033784f4  7....G..#....7..
 800005a0 8327c4f8 b307f700 23800700 8327c4f8  .'......#....'..
 800005b0 9b871700 2326f4f8 8327c4f8 13870700  ....#&...'......
 800005c0 8327c4f3 1b070700 9b870700 e34af7fa  .'...........J..
 800005d0 833784f5 23a00700 833784f6 1307f0ff  .7..#....7......
 800005e0 23a0e700 232404f8 6f004014 833584f4  #...#$..o.@..5..
 800005f0 033584f5 eff0dfcd 93070500 2322f4f4  .5..........#"..
 80000600 033784f4 832744f4 b307f700 13071000  .7...'D.........
 80000610 2380e700 232204f8 6f00000f 832744f4  #...#"..o....'D.
 80000620 13870400 b387e702 93972700 033704f3  ..........'..7..
 80000630 3307f700 832744f8 93972700 b307f700  3....'D...'.....
 80000640 83a70700 638c070a 033784f4 832744f8  ....c....7...'D.
 80000650 b307f700 83c70700 93c71700 93f7f70f  ................
 80000660 638e0708 832744f4 13870400 b387e702  c....'D.........
 80000670 93972700 033704f3 3307f700 832744f8  ..'..7..3....'D.
 80000680 93972700 b307f700 83a60700 033784f5  ..'..........7..
 80000690 832744f8 93972700 b307f700 83a70700  .'D...'.........
 800006a0 13870600 635cf704 033784f6 832744f8  ....c\...7...'D.
 800006b0 93972700 b307f700 032744f4 23a0e700  ..'......'D.#...
 800006c0 832744f4 13870400 b387e702 93972700  .'D...........'.
 800006d0 033704f3 3307f700 832744f8 93972700  .7..3....'D...'.
 800006e0 b307f700 03a70700 833684f5 832744f8  .........6...'D.
 800006f0 93972700 b387f600 23a0e700 832744f8  ..'.....#....'D.
 80000700 9b871700 2322f4f8 832744f8 13870700  ....#"...'D.....
 80000710 8327c4f3 1b070700 9b870700 e340f7f0  .'...........@..
 80000720 832784f8 9b871700 2324f4f8 8327c4f3  .'......#$...'..
 80000730 9b87f7ff 1b870700 832784f8 9b870700  .........'......
 80000740 e3c6e7ea 033184ee 13000000 130104ee  .....1..........
 80000750 83308111 03340111 83348110 03390110  .0...4...4...9..
 80000760 8339810f 033a010f 833a810e 033b010e  .9...:...:...;..
 80000770 833b810d 033c010d 833c810c 033d010c  .;...<...<...=..
 80000780 833d810b 13010112 67800000 130101f8  .=......g.......
 80000790 233c1106 23388106 13040108 17270000  #<..#8.......'..
 800007a0 130747df 930784f8 93060700 13074006  ..G...........@.
 800007b0 13060700 93850600 13850700 ef00d063  ...............c
 800007c0 930784f8 93850700 13055000 eff09fbb  ..........P.....
 800007d0 13000000 13850700 83308107 03340107  .........0...4..
 800007e0 13010108 67800000 130101ff 23348100  ....g.......#4..
 800007f0 13040101 97270000 9387c726 83b70700  .....'.....&....
 80000800 83b70700 13850700 03348100 13010101  .........4......
 80000810 67800000 130101ff 23348100 13040101  g.......#4......
 80000820 97270000 93870724 83b70700 93878700  .'.....$........
 80000830 83b70700 13850700 03348100 13010101  .........4......
 80000840 67800000 130101ff 23348100 13040101  g.......#4......
 80000850 97270000 93870721 83b70700 93870701  .'.....!........
 80000860 83b70700 13850700 03348100 13010101  .........4......
 80000870 67800000 130101fc 233c1102 23388102  g.......#<..#8..
 80000880 13040104 2334a4fc eff01ff6 2334a4fe  ....#4......#4..
 80000890 b7c70000 93870735 2330f4fe 033784fc  .......5#0...7..
 800008a0 833704fe b307f702 233cf4fc 13000000  .7......#<......
 800008b0 eff09ff3 13070500 833784fe b307f740  .........7.....@
 800008c0 033784fd e3e6e7fe 13000000 13000000  .7..............
 800008d0 83308103 03340103 13010104 67800000  .0...4......g...
 800008e0 130101fd 23341102 23308102 13040103  ....#4..#0......
 800008f0 233ca4fc 233404fe 6f008001 1305803e  #<..#4..o......>
 80000900 eff05ff7 833784fe 93871700 2334f4fe  .._..7......#4..
 80000910 033784fe 833784fd e362f7fe 13000000  .7...7...b......
 80000920 13000000 83308102 03340102 13010103  .....0...4......
 80000930 67800000 130101fd 23348102 13040103  g.......#4......
 80000940 233ca4fc 2338b4fc 833784fd 2334f4fe  #<..#8...7..#4..
 80000950 833704fd 2330f4fe 833784fe 03a78700  .7..#0...7......
 80000960 833704fe 83a78700 bb07f740 9b870700  .7.........@....
 80000970 13850700 03348102 13010103 67800000  .....4......g...
 80000980 130101fc 233c8102 13040104 233ca4fc  ....#<......#<..
 80000990 2338b4fc 93070600 2326f4fc 232604fe  #8......#&..#&..
 800009a0 6f00c003 8327c4fe 93972700 033784fd  o....'....'..7..
 800009b0 b307f700 0327c4fe 23a0e700 8327c4fe  .....'..#....'..
 800009c0 93972700 033704fd b307f700 23a00700  ..'..7......#...
 800009d0 8327c4fe 9b871700 2326f4fe 8327c4fe  .'......#&...'..
 800009e0 13870700 8327c4fc 1b070700 9b870700  .....'..........
 800009f0 e34af7fa 13000000 13000000 03348103  .J...........4..
 80000a00 13010104 67800000 130101fd 23341102  ....g.......#4..
 80000a10 23308102 233c9100 13040103 233ca4fc  #0..#<......#<..
 80000a20 93870500 232af4fc 832744fd 93972700  ....#*...'D...'.
 80000a30 033784fd b307f700 03a70700 832744fd  .7...........'D.
 80000a40 9b870700 6396e700 832744fd 6f000004  ....c....'D.o...
 80000a50 832744fd 93972700 033784fd b307f700  .'D...'..7......
 80000a60 83a60700 832744fd 93972700 033784fd  .....'D...'..7..
 80000a70 b304f700 93850600 033584fd eff0dff8  .........5......
 80000a80 93070500 23a0f400 83a70400 13850700  ....#...........
 80000a90 83308102 03340102 83348101 13010103  .0...4...4......
 80000aa0 67800000 130101fd 23341102 23308102  g.......#4..#0..
 80000ab0 13040103 93070500 2330c4fe 233cd4fc  ........#0..#<..
 80000ac0 2326f4fe 93870500 2324f4fe 93070700  #&......#$......
 80000ad0 232af4fc 8327c4fe 93850700 033504fe  #*...'.......5..
 80000ae0 eff09ff2 93070500 2326f4fe 832784fe  ........#&...'..
 80000af0 93850700 033504fe eff01ff1 93070500  .....5..........
 80000b00 2324f4fe 8327c4fe 93972700 033784fd  #$...'....'..7..
 80000b10 b307f700 83a60700 832784fe 93972700  .........'....'.
 80000b20 033784fd b307f700 83a70700 13870600  .7..............
 80000b30 6350f702 8327c4fe 93972700 033704fe  cP...'....'..7..
 80000b40 b307f700 032784fe 23a0e700 6f008008  .....'..#...o...
 80000b50 8327c4fe 93972700 033784fd b307f700  .'....'..7......
 80000b60 83a60700 832784fe 93972700 033784fd  .....'....'..7..
 80000b70 b307f700 83a70700 13870600 63d0e702  ............c...
 80000b80 832784fe 93972700 033704fe b307f700  .'....'..7......
 80000b90 0327c4fe 23a0e700 6f00c003 832784fe  .'..#...o....'..
 80000ba0 93972700 033704fe b307f700 0327c4fe  ..'..7.......'..
 80000bb0 23a0e700 8327c4fe 93972700 033784fd  #....'....'..7..
 80000bc0 b307f700 03a70700 1b071700 1b070700  ................
 80000bd0 23a0e700 13000000 83308102 03340102  #........0...4..
 80000be0 13010103 67800000 130101f1 2334110e  ....g.......#4..
 80000bf0 2330810e 233c910c 2338210d 2334310d  #0..#<..#8!.#41.
 80000c00 2330410d 233c510b 2338610b 2334710b  #0A.#<Q.#8a.#4q.
 80000c10 2330810b 233c9109 2338a109 2334b109  #0..#<..#8..#4..
 80000c20 1304010f 93070500 2330b4f4 2326f4f4  ........#0..#&..
 80000c30 93070100 93840700 8327c4f4 97060000  .........'......
 80000c40 938686cf 1306c000 93850700 033504f4  .............5..
 80000c50 ef001035 8327c4f4 13870700 1307f7ff  ...5.'..........
 80000c60 2330e4f8 13870700 2338e4f2 233c04f2  #0......#8..#<..
 80000c70 033704f3 1357b703 833684f3 939c5600  .7...W...6....V.
 80000c80 b36c9701 033704f3 131c5700 13870700  .l...7....W.....
 80000c90 2330e4f2 233404f2 033704f2 1357b703  #0..#4...7...W..
 80000ca0 833684f2 939b5600 b36b7701 033704f2  .6....V..kw..7..
 80000cb0 131b5700 93972700 9387f700 93d74700  ..W...'.......G.
 80000cc0 93974700 3301f140 93070100 93873700  ..G.3..@......7.
 80000cd0 93d72700 93972700 233cf4f6 8327c4f4  ..'...'.#<...'..
 80000ce0 13870700 1307f7ff 2338e4f6 13870700  ........#8......
 80000cf0 2338e4f0 233c04f0 033704f1 1357b703  #8..#<...7...W..
 80000d00 833684f1 939a5600 b36a5701 033704f1  .6....V..jW..7..
 80000d10 131a5700 13870700 130d0700 930d0000  ..W.............
 80000d20 1357bd03 93995d00 b3693701 13195d00  .W....]..i7...].
 80000d30 93972700 9387f700 93d74700 93974700  ..'.......G...G.
 80000d40 3301f140 93070100 93873700 93d72700  3..@......7...'.
 80000d50 93972700 2334f4f6 8327c4f4 13860700  ..'.#4...'......
 80000d60 833584f6 033584f7 eff09fc1 232604f8  .5...5......#&..
 80000d70 232404f8 6f00000f 032784f8 93070700  #$..o....'......
 80000d80 93971700 b387e700 93972700 13870700  ..........'.....
 80000d90 833704f4 b387e700 83a70700 93850700  .7..............
 80000da0 033584f7 eff05fc6 93070500 2322f4f6  .5...._.....#"..
 80000db0 032784f8 93070700 93971700 b387e700  .'..............
 80000dc0 93972700 13870700 833704f4 b387e700  ..'......7......
 80000dd0 83a74700 93850700 033584f7 eff0dfc2  ..G......5......
 80000de0 93070500 2320f4f6 032784f8 93070700  ....# ...'......
 80000df0 93971700 b387e700 93972700 13870700  ..........'.....
 80000e00 833704f4 b387e700 83a78700 232ef4f4  .7..........#...
 80000e10 832744f6 13870700 832704f6 1b070700  .'D......'......
 80000e20 9b870700 630af702 0327c4f4 832504f6  ....c....'...%..
 80000e30 832744f6 833684f6 033684f7 13850700  .'D..6...6......
 80000e40 eff05fc6 8327c4f8 13870700 8327c4f5  .._..'.......'..
 80000e50 bb07f700 2326f4f8 832784f8 9b871700  ....#&...'......
 80000e60 2324f4f8 832784f8 13870700 8327c4f4  #$...'.......'..
 80000e70 1b070700 9b870700 e340f7f0 8327c4f8  .........@...'..
 80000e80 13810400 13850700 130104f1 8330810e  .............0..
 80000e90 0334010e 8334810d 0339010d 8339810c  .4...4...9...9..
 80000ea0 033a010c 833a810b 033b010b 833b810a  .:...:...;...;..
 80000eb0 033c010a 833c8109 033d0109 833d8108  .<...<...=...=..
 80000ec0 1301010f 67800000 130101fb 23341104  ....g.......#4..
 80000ed0 23308104 13040105 97170000 93870772  #0.............r
 80000ee0 83b80700 03b88700 03b50701 83b58701  ................
 80000ef0 03b60702 83b68702 03b70703 233814fb  ............#8..
 80000f00 233c04fb 2330a4fc 2334b4fc 2338c4fc  #<..#0..#4..#8..
 80000f10 233cd4fc 2330e4fe 83a78703 2324f4fe  #<..#0......#$..
 80000f20 930704fb 93850700 13055000 eff0dfcb  ..........P.....
 80000f30 93070500 13850700 83308104 03340104  .........0...4..
 80000f40 13010105 67800000 130101fd 23348102  ....g.......#4..
 80000f50 13040103 233ca4fc 233404fe 6f000001  ....#<..#4..o...
 80000f60 833784fe 93871700 2334f4fe 033784fd  .7......#4...7..
 80000f70 833784fe b307f700 83c70700 e39207fe  .7..............
 80000f80 833784fe 13850700 03348102 13010103  .7.......4......
 80000f90 67800000 130101fd 23348102 13040103  g.......#4......
 80000fa0 233ca4fc 2338b4fc 233404fe 6f000003  #<..#8..#4..o...
 80000fb0 033704fd 833784fe 3307f700 833684fd  .7...7..3....6..
 80000fc0 833784fe b387f600 03470700 2380e700  .7.......G..#...
 80000fd0 833784fe 93871700 2334f4fe 033704fd  .7......#4...7..
 80000fe0 833784fe b307f700 83c70700 e39207fc  .7..............
 80000ff0 033784fd 833784fe b307f700 23800700  .7...7......#...
 80001000 13000000 03348102 13010103 67800000  .....4......g...
 80001010 130101fc 233c1102 23388102 13040104  ....#<..#8......
 80001020 233ca4fc 2338b4fc 2334c4fc 833784fd  #<..#8..#4...7..
 80001030 2334f4fe 6f008015 833704fd 83c70700  #4..o....7......
 80001040 13870700 93075002 6300f702 833784fe  ......P.c....7..
 80001050 13871700 2334e4fe 033704fd 03470700  ....#4...7...G..
 80001060 2380e700 6f00c011 833704fd 93871700  #...o....7......
 80001070 2338f4fc 833704fd 83c70700 9b870700  #8...7..........
 80001080 93860700 13078007 638ae608 93860700  ........c.......
 80001090 13078007 6344d70e 93860700 13073007  ....cD........0.
 800010a0 6382e60a 93860700 13073007 6348d70c  c.........0.cH..
 800010b0 93860700 13073006 638ae600 13870700  ......0.c.......
 800010c0 93074006 6308f702 6f00400b 833784fc  ..@.c...o.@..7..
 800010d0 13878700 2334e4fc 83a60700 833784fe  ....#4.......7..
 800010e0 13871700 2334e4fe 13f7f60f 2380e700  ....#4......#...
 800010f0 6f000009 833784fc 13878700 2334e4fc  o....7......#4..
 80001100 83a60700 833784fe 13871700 2334e4fe  .....7......#4..
 80001110 13f7f60f 2380e700 6f008006 833784fc  ....#...o....7..
 80001120 13878700 2334e4fc 83a60700 833784fe  ....#4.......7..
 80001130 13871700 2334e4fe 13f7f60f 2380e700  ....#4......#...
 80001140 6f000004 833784fc 13878700 2334e4fc  o....7......#4..
 80001150 83b70700 93850700 033584fe eff09fe3  .........5......
 80001160 033584fe eff05fde 13070500 833784fe  .5...._......7..
 80001170 b387e700 2334f4fe 6f008000 13000000  ....#4..o.......
 80001180 833704fd 93871700 2338f4fc 833704fd  .7......#8...7..
 80001190 83c70700 e39207ea 833784fe 23800700  .........7..#...
 800011a0 13000000 83308103 03340103 13010104  .....0...4......
 800011b0 67800000 130101f4 233c110a 2338810a  g.......#<..#8..
 800011c0 1304010c 93070500 2330b4f4 13070600  ........#0......
 800011d0 2326f4f4 93070700 2324f4f4 97170000  #&......#$......
 800011e0 9387c745 83b50700 03b68700 83b60701  ...E............
 800011f0 03b78701 233cb4fa 2330c4fc 2334d4fc  ....#<..#0..#4..
 80001200 2338e4fc 03a70702 232ce4fc 83c74702  #8......#,....G.
 80001210 230ef4fc 232404fe 832784f4 1b870700  #...#$...'......
 80001220 9307a000 6312f704 8327c4f4 9b870700  ....c....'......
 80001230 63dc0702 8327c4f4 bb07f040 9b870700  c....'.....@....
 80001240 2326f4fe 832784fe 1b871700 2324e4fe  #&...'......#$..
 80001250 13870700 833704f4 b387e700 1307d002  .....7..........
 80001260 2380e700 6f00c000 8327c4f4 2326f4fe  #...o....'..#&..
 80001270 832784f4 0327c4fe bb77f702 9b860700  .'...'...w......
 80001280 832784fe 1b871700 2324e4fe 13870700  .'......#$......
 80001290 833704f4 b387e700 13970602 13570702  .7...........W..
 800012a0 130707ff 33078700 034787fc 2380e700  ....3....G..#...
 800012b0 832784f4 0327c4fe bb57f702 2326f4fe  .'...'...W..#&..
 800012c0 8327c4fe 9b870700 e39407fa 832784fe  .'...........'..
 800012d0 033704f4 b307f700 23800700 833704f4  .7......#....7..
 800012e0 83c70700 13870700 9307d002 6318f700  ............c...
 800012f0 93071000 2322f4fe 6f008000 232204fe  ....#"..o...#"..
 80001300 233804f4 233c04f4 233004f6 233404f6  #8..#<..#0..#4..
 80001310 233804f6 233c04f6 233004f8 233404f8  #8..#<..#0..#4..
 80001320 233804f8 233c04f8 233004fa 233404fa  #8..#<..#0..#4..
 80001330 232804fa 930704f5 833504f4 13850700  #(.......5......
 80001340 eff05fc5 832744fe 2320f4fe 6f008004  .._..'D.# ..o...
 80001350 832784fe 13870700 832704fe bb07f740  .'.......'.....@
 80001360 9b870700 9b87f7ff 1b870700 832704fe  .............'..
 80001370 833604f4 b387f600 130707ff 33078700  .6..........3...
 80001380 034707f6 2380e700 832704fe 9b871700  .G..#....'......
 80001390 2320f4fe 832704fe 13870700 832784fe  # ...'.......'..
 800013a0 1b070700 9b870700 e344f7fa 13000000  .........D......
 800013b0 13000000 8330810b 0334010b 1301010c  .....0...4......
 800013c0 67800000 130101fd 23348102 13040103  g.......#4......
 800013d0 233ca4fc 232604fe 93071000 2324f4fe  #<..#&......#$..
 800013e0 833784fd 83c70700 13870700 9307d002  .7..............
 800013f0 6310f706 9307f0ff 2324f4fe 833784fd  c.......#$...7..
 80001400 93871700 233cf4fc 6f008004 8327c4fe  ....#<..o....'..
 80001410 13870700 93070700 9b972700 bb87e700  ..........'.....
 80001420 9b971700 1b870700 833784fd 83c70700  .........7......
 80001430 9b870700 bb07f700 9b870700 9b8707fd  ................
 80001440 2326f4fe 833784fd 93871700 233cf4fc  #&...7......#<..
 80001450 833784fd 83c70700 e39a07fa 8327c4fe  .7...........'..
 80001460 13870700 832784fe bb07f702 9b870700  .....'..........
 80001470 13850700 03348102 13010103 67800000  .....4......g...
 80001480 130101fd 23348102 13040103 233ca4fc  ....#4......#<..
 80001490 93870500 232af4fc 232604fe 93071000  ....#*..#&......
 800014a0 2324f4fe 833784fd 83c70700 13870700  #$...7..........
 800014b0 9307d002 631cf704 9307f0ff 2324f4fe  ....c.......#$..
 800014c0 833784fd 93871700 233cf4fc 6f000004  .7......#<..o...
 800014d0 8327c4fe 13870700 832744fd bb07f702  .'.......'D.....
 800014e0 1b870700 833784fd 83c70700 9b870700  .....7..........
 800014f0 bb07f700 9b870700 9b8707fd 2326f4fe  ............#&..
 80001500 833784fd 93871700 233cf4fc 833784fd  .7......#<...7..
 80001510 83c70700 e39e07fa 8327c4fe 13870700  .........'......
 80001520 832784fe bb07f702 9b870700 13850700  .'..............
 80001530 03348102 13010103 67800000 130101fe  .4......g.......
 80001540 233c8100 13040102 2334a4fe 2330b4fe  #<......#4..#0..
 80001550 6f004005 833784fe 03c70700 833704fe  o.@..7.......7..
 80001560 83c70700 6304f702 833784fe 83c70700  ....c....7......
 80001570 1b870700 833704fe 83c70700 9b870700  .....7..........
 80001580 bb07f740 9b870700 6f000006 833784fe  ...@....o....7..
 80001590 93871700 2334f4fe 833704fe 93871700  ....#4...7......
 800015a0 2330f4fe 833784fe 83c70700 63880700  #0...7......c...
 800015b0 833704fe 83c70700 e39e07f8 833784fe  .7...........7..
 800015c0 83c70700 63860700 93071000 6f00c001  ....c.......o...
 800015d0 833704fe 83c70700 63860700 9307f0ff  .7......c.......
 800015e0 6f008000 93070000 13850700 03348101  o............4..
 800015f0 13010102 67800000 130101fc 233c8102  ....g.......#<..
 80001600 13040104 233ca4fc 2338b4fc 93070600  ....#<..#8......
 80001610 2326f4fc 232604fe 6f000003 8327c4fe  #&..#&..o....'..
 80001620 033704fd 3307f700 8327c4fe 833684fd  .7..3....'...6..
 80001630 b387f600 03470700 2380e700 8327c4fe  .....G..#....'..
 80001640 9b871700 2326f4fe 8327c4fe 13870700  ....#&...'......
 80001650 8327c4fc 1b070700 9b870700 e340f7fc  .'...........@..
 80001660 13000000 13000000 03348103 13010104  .........4......
 80001670 67800000 130101fd 23348102 13040103  g.......#4......
 80001680 233ca4fc 93870500 13070600 a30bf4fc  #<..............
 80001690 93070700 2328f4fc 232604fe 6f004002  ....#(..#&..o.@.
 800016a0 8327c4fe 033784fd b307f700 034774fd  .'...7.......Gt.
 800016b0 2380e700 8327c4fe 9b871700 2326f4fe  #....'......#&..
 800016c0 8327c4fe 13870700 832704fd 1b070700  .'.......'......
 800016d0 9b870700 e346f7fc 13000000 13000000  .....F..........
 800016e0 03348102 13010103 67800000 130101fb  .4......g.......
 800016f0 23348104 13040105 2334a4fc 2330b4fc  #4......#4..#0..
 80001700 93070600 232ef4fa 833784fc 2330f4fe  ....#....7..#0..
 80001710 833704fc 233cf4fc 232604fe 6f008005  .7..#<..#&..o...
 80001720 8327c4fe 033704fe b307f700 83c70700  .'...7..........
 80001730 a30bf4fc 8327c4fe 033784fd 3307f700  .....'...7..3...
 80001740 8327c4fe 833604fe b387f600 03470700  .'...6.......G..
 80001750 2380e700 8327c4fe 033784fd b307f700  #....'...7......
 80001760 034774fd 2380e700 8327c4fe 9b871700  .Gt.#....'......
 80001770 2326f4fe 8327c4fe 13870700 8327c4fb  #&...'.......'..
 80001780 1b070700 9b870700 e34cf7f8 13000000  .........L......
 80001790 13000000 03348104 13010105 67800000  .....4......g...
 800017a0 130101fb 23341104 23308104 13040105  ....#4..#0......
 800017b0 2334a4fc 93870500 13070600 233cd4fa  #4..........#<..
 800017c0 2322f4fc 93070700 2320f4fc 833784fc  #"......# ...7..
 800017d0 2330f4fe 232604fe 6f00000c 232404fe  #0..#&..o...#$..
 800017e0 6f008008 832784fe 13870700 832704fc  o....'.......'..
 800017f0 bb07f702 9b870700 13870700 833704fe  .............7..
 80001800 b387e700 233cf4fc 832784fe 9b871700  ....#<...'......
 80001810 9b870700 032704fc bb07f702 9b870700  .....'..........
 80001820 13870700 833704fe b387e700 2338f4fc  .....7......#8..
 80001830 833784fb 833504fd 033584fd e7800700  .7...5...5......
 80001840 93070500 635cf000 832704fc 13860700  ....c\...'......
 80001850 833504fd 033584fd eff05fe9 832784fe  .5...5...._..'..
 80001860 9b871700 2324f4fe 832744fc 9b87f7ff  ....#$...'D.....
 80001870 9b870700 0327c4fe bb87e740 1b870700  .....'.....@....
 80001880 832784fe 9b870700 e3cee7f4 8327c4fe  .'...........'..
 80001890 9b871700 2326f4fe 8327c4fe 13870700  ....#&...'......
 800018a0 832744fc 1b070700 9b870700 e348f7f2  .'D..........H..
 800018b0 13000000 13000000 83308104 03340104  .........0...4..
 800018c0 13010105 67800000 130101ff 23348100  ....g.......#4..
 800018d0 13040101 97170000 9387471a 83b70700  ..........G.....
 800018e0 93878700 83a70700 9b870700 93f71700  ................
 800018f0 9b870700 13850700 03348100 13010101  .........4......
 80001900 67800000 130101ff 23348100 13040101  g.......#4......
 80001910 97170000 93878716 83b70700 93878700  ................
 80001920 83a70700 9b870700 93f74700 9b870700  ..........G.....
 80001930 13850700 03348100 13010101 67800000  .....4......g...
 80001940 130101fe 233c1100 23388100 13040102  ....#<..#8......
 80001950 2334a4fe 6f00c003 13000000 eff09ffa  #4..o...........
 80001960 93070500 e38c07fe 833784fe 13871700  .........7......
 80001970 2334e4fe 03c70700 97170000 93870710  #4..............
 80001980 83b70700 93874700 1b070700 23a0e700  ......G.....#...
 80001990 833784fe 83c70700 e39007fc 13000000  .7..............
 800019a0 eff05ff6 93070500 e38c07fe 97170000  .._.............
 800019b0 9387c70c 83b70700 93874700 1307a000  ..........G.....
 800019c0 23a0e700 13000000 83308101 03340101  #........0...4..
 800019d0 13010102 67800000 130101fc 233c8102  ....g.......#<..
 800019e0 13040104 93070500 2338b4fc 2334c4fc  ........#8..#4..
 800019f0 232ef4fc b7070080 93c7f7ff 2326f4fe  #...........#&..
 80001a00 232204fe 6f00c006 832744fe 033784fc  #"..o....'D..7..
 80001a10 b307f700 83c70700 93c71700 93f7f70f  ................
 80001a20 63820704 832744fe 93972700 033704fd  c....'D...'..7..
 80001a30 b307f700 03a70700 8327c4fe 9b870700  .........'......
 80001a40 63c2e702 832744fe 93972700 033704fd  c....'D...'..7..
 80001a50 b307f700 83a70700 2326f4fe 832744fe  ........#&...'D.
 80001a60 2324f4fe 832744fe 9b871700 2322f4fe  #$...'D.....#"..
 80001a70 832744fe 13870700 8327c4fd 1b070700  .'D......'......
 80001a80 9b870700 e342f7f8 832784fe 13850700  .....B...'......
 80001a90 03348103 13010104 67800000 130101fd  .4......g.......
 80001aa0 23348102 13040103 93070500 2338b4fc  #4..........#8..
 80001ab0 232ef4fc 232604fe 6f000001 8327c4fe  #...#&..o....'..
 80001ac0 9b871700 2326f4fe 8327c4fe 13870700  ....#&...'......
 80001ad0 8327c4fd 1b070700 9b870700 e340f7fe  .'...........@..
 80001ae0 13000000 13000000 03348102 13010103  .........4......
 80001af0 67800000 130101f4 233c110a 2338810a  g.......#<..#8..
 80001b00 2334910a 2330210b 233c3109 23384109  #4..#0!.#<1.#8A.
 80001b10 23345109 23306109 233c7107 23388107  #4Q.#0a.#<q.#8..
 80001b20 23349107 2330a107 233cb105 1304010c  #4..#0..#<......
 80001b30 93060500 2330b4f4 2326d4f4 93060600  ....#0..#&......
 80001b40 2324d4f4 8324c4f4 93860400 9386f6ff  #$...$..........
 80001b50 233cd4f6 93860400 138d0600 930d0000  #<..............
 80001b60 9356bd03 939f5d00 b3eff601 131f5d00  .V....].......].
 80001b70 93060100 138d0600 8326c4f4 13860600  .........&......
 80001b80 1306f6ff 2338c4f6 13860600 130c0600  ....#8..........
 80001b90 930c0000 1356bc03 939e5c00 b36ed601  .....V....\..n..
 80001ba0 131e5c00 13860600 130b0600 930b0000  ..\.............
 80001bb0 1356bb03 93935b00 b3637600 13135b00  .V....[..cv...[.
 80001bc0 93962600 9386f600 93d64600 93964600  ..&.......F...F.
 80001bd0 3301d140 93060100 93863600 93d62600  3..@......6...&.
 80001be0 93962600 2334d4f6 8326c4f4 13860600  ..&.#4...&......
 80001bf0 1306f6ff 2330c4f6 13860600 130a0600  ....#0..........
 80001c00 930a0000 1356da03 93983a00 b3681601  .....V....:..h..
 80001c10 13183a00 13860600 13090600 93090000  ..:.............
 80001c20 1356d903 93973900 b367f600 13173900  .V....9..g....9.
 80001c30 93870600 9387f700 93d74700 93974700  ..........G...G.
 80001c40 3301f140 93070100 93870700 233cf4f4  3..@........#<..
 80001c50 232604f8 6f00c003 033784f6 8327c4f8  #&..o....7...'..
 80001c60 93972700 b307f700 37070080 1347f7ff  ..'.....7....G..
 80001c70 23a0e700 033784f5 8327c4f8 b307f700  #....7...'......
 80001c80 23800700 8327c4f8 9b871700 2326f4f8  #....'......#&..
 80001c90 8327c4f8 13870700 8327c4f4 1b070700  .'.......'......
 80001ca0 9b870700 e34af7fa 033784f6 832784f4  .....J...7...'..
 80001cb0 93972700 b307f700 23a00700 232404f8  ..'.....#...#$..
 80001cc0 6f000019 8327c4f4 033684f5 833584f6  o....'...6...5..
 80001cd0 13850700 eff05fd0 93070500 232af4f4  ......_.....#*..
 80001ce0 033784f5 832744f5 b307f700 13071000  .7...'D.........
 80001cf0 2380e700 232204f8 6f004013 033784f5  #...#"..o.@..7..
 80001d00 832744f8 b307f700 83c70700 93c71700  .'D.............
 80001d10 93f7f70f 63860710 832744f5 13870400  ....c....'D.....
 80001d20 b387e702 93972700 033704f4 3307f700  ......'..7..3...
 80001d30 832744f8 93972700 b307f700 83a70700  .'D...'.........
 80001d40 6380070e 033784f6 832744f5 93972700  c....7...'D...'.
 80001d50 b307f700 83a70700 13870700 b7070080  ................
 80001d60 93c7f7ff 630ef70a 033784f6 832744f5  ....c....7...'D.
 80001d70 93972700 b307f700 03a70700 832744f5  ..'..........'D.
 80001d80 93860400 b387d702 93972700 833604f4  ..........'..6..
 80001d90 b386f600 832744f8 93972700 b387f600  .....'D...'.....
 80001da0 83a70700 bb07f700 9b860700 033784f6  .............7..
 80001db0 832744f8 93972700 b307f700 83a70700  .'D...'.........
 80001dc0 13870600 635ef704 033784f6 832744f5  ....c^...7...'D.
 80001dd0 93972700 b307f700 03a70700 832744f5  ..'..........'D.
 80001de0 93860400 b387d702 93972700 833604f4  ..........'..6..
 80001df0 b386f600 832744f8 93972700 b387f600  .....'D...'.....
 80001e00 83a70700 bb07f700 1b870700 833684f6  .............6..
 80001e10 832744f8 93972700 b387f600 23a0e700  .'D...'.....#...
 80001e20 832744f8 9b871700 2322f4f8 832744f8  .'D.....#"...'D.
 80001e30 13870700 8327c4f4 1b070700 9b870700  .....'..........
 80001e40 e34ef7ea 832784f8 9b871700 2324f4f8  .N...'......#$..
 80001e50 8327c4f4 9b87f7ff 1b870700 832784f8  .'...........'..
 80001e60 9b870700 e3c0e7e6 8327c4f4 833584f6  .........'...5..
 80001e70 13850700 eff09fc2 13010d00 13000000  ................
 80001e80 130104f4 8330810b 0334010b 8334810a  .....0...4...4..
 80001e90 0339010a 83398109 033a0109 833a8108  .9...9...:...:..
 80001ea0 033b0108 833b8107 033c0107 833c8106  .;...;...<...<..
 80001eb0 033d0106 833d8105 1301010c 67800000  .=...=......g...
 80001ec0 130101ea 233c1114 23388114 13040116  ....#<..#8......
 80001ed0 17070000 13070779 930784ea 93060700  .......y........
 80001ee0 13074014 13060700 93850600 13850700  ..@.............
 80001ef0 eff08ff0 930784ea 13060000 93850700  ................
 80001f00 13059000 eff01fbf 13000000 83308115  .............0..
 80001f10 03340115 13010116 67800000 130101fb  .4......g.......
 80001f20 23341104 23308104 13040105 2338c4fc  #4..#0......#8..
 80001f30 2334d4fc 2330e4fc 233cf4fa 233804fb  #4..#0..#<..#8..
 80001f40 93070500 232ef4fc 93870500 232cf4fc  ....#.......#,..
 80001f50 832784fd 13870700 1307f7ff 2330e4fe  .'..........#0..
 80001f60 13870700 130e0700 930e0000 1357be03  .............W..
 80001f70 93935e00 b3637700 13135e00 13071000  ..^..cw...^.....
 80001f80 2326e4fe 6f008008 0327c4fd 93860700  #&..o....'......
 80001f90 3307d702 13172700 833604fd b386e600  3.....'..6......
 80001fa0 0327c4fe 13172700 3387e600 03270700  .'....'.3....'..
 80001fb0 63080704 0327c4fe 13172700 833684fc  c....'....'..6..
 80001fc0 3387e600 03270700 631c0702 033704fb  3....'..c....7..
 80001fd0 03270700 1b071700 9b060700 033704fb  .'...........7..
 80001fe0 2320d700 033704fb 03270700 13172700  # ...7...'....'.
 80001ff0 833604fc 3387e600 8326c4fe 2320d700  .6..3....&..# ..
 80002000 0327c4fe 1b071700 2326e4fe 0327c4fe  .'......#&...'..
 80002010 93060700 032784fd 9b860600 1b070700  .....'..........
 80002020 e354d7f6 833784fb 03a70700 833704fb  .T...7.......7..
 80002030 83a70700 63cae706 833784fb 83a70700  ....c....7......
 80002040 93972700 033704fc b307f700 83a70700  ..'..7..........
 80002050 93972700 033784fc b307f700 13071000  ..'..7..........
 80002060 23a0e700 833784fb 83a70700 1b871700  #....7..........
 80002070 9b060700 033784fb 2320d700 93972700  .....7..# ....'.
 80002080 033704fc b307f700 03a50700 832584fd  .7...........%..
 80002090 033804fb 833784fb 033704fc 833684fc  .8...7...7...6..
 800020a0 033604fd eff09fe7 13000000 83308104  .6...........0..
 800020b0 03340104 13010105 67800000 130101e5  .4......g.......
 800020c0 2334111a 2330811a 1304011b 233404fc  #4..#0......#4..
 800020d0 233804fc 233c04fc 233004fe 232404fe  #8..#<..#0..#$..
 800020e0 233004fa 233404fa 233804fa 233c04fa  #0..#4..#8..#<..
 800020f0 232004fc 17070000 1307476b 930784e5  # ........Gk....
 80002100 93060700 13074014 13060700 93850600  ......@.........
 80002110 13850700 eff04fce 9307f0ff 232af4e4  ......O.....#*..
 80002120 9307f0ff 2328f4e4 930504e5 930744e5  ....#(........D.
 80002130 130704fa 930684fc 130684e5 13880500  ................
 80002140 93059000 13052000 eff05fdd 13000000  ...... ..._.....
 80002150 8330811a 0334011a 1301011b 67800000  .0...4......g...
 80002160 130101fb 23341104 23308104 233c9102  ....#4..#0..#<..
 80002170 13040105 2330c4fc 233cd4fa 93060500  ....#0..#<......
 80002180 2326d4fc 93860500 2324d4fc 832684fc  #&......#$...&..
 80002190 9b861600 9b840600 93860400 9386f6ff  ................
 800021a0 2338d4fc 93860400 13880600 93080000  #8..............
 800021b0 9356b803 93975800 b3e7f600 13175800  .V....X.......X.
 800021c0 8327c4fc 93972700 033784fb b307f700  .'....'..7......
 800021d0 13071000 23a0e700 93071000 232ef4fc  ....#.......#...
 800021e0 6f000007 8327c4fc 13870400 b387e702  o....'..........
 800021f0 93972700 033704fc 3307f700 8327c4fd  ..'..7..3....'..
 80002200 93972700 b307f700 83a70700 638c0702  ..'.........c...
 80002210 8327c4fd 93972700 033784fb b307f700  .'....'..7......
 80002220 83a70700 63900702 032784fc 8327c4fd  ....c....'...'..
 80002230 833684fb 033604fc 93050700 13850700  .6...6..........
 80002240 eff01ff2 8327c4fd 9b871700 232ef4fc  .....'......#...
 80002250 8327c4fd 13870700 832784fc 1b070700  .'.......'......
 80002260 9b870700 e3d0e7f8 13000000 13000000  ................
 80002270 83308104 03340104 83348103 13010105  .0...4...4......
 80002280 67800000 130101e7 23341118 23308118  g.......#4..#0..
 80002290 13040119 233004fc 233404fc 233804fc  ....#0..#4..#8..
 800022a0 233c04fc 232004fe 17070000 13078764  #<..# .........d
 800022b0 930784e7 93060700 13074014 13060700  ..........@.....
 800022c0 93850600 13850700 eff00fb3 130704fc  ................
 800022d0 930784e7 93060700 13860700 93058000  ................
 800022e0 13051000 eff0dfe7 232604fe 93071000  ........#&......
 800022f0 2324f4fe 6f004003 832784fe 93972700  #$..o.@..'....'.
 80002300 938707ff b3878700 83a707fd 63880700  ............c...
 80002310 8327c4fe 9b871700 2326f4fe 832784fe  .'......#&...'..
 80002320 9b871700 2324f4fe 832784fe 1b870700  ....#$...'......
 80002330 93078000 e3d2e7fc 13000000 13000000  ................
 80002340 83308118 03340118 13010119 67800000  .0...4......g...
 80002350 130101fe 233c8100 13040102 93070500  ....#<..........
 80002360 a307f4fe 97070000 93874772 83b70700  ..........Gr....
 80002370 0347f4fe 1b070700 23a0e700 13000000  .G......#.......
 80002380 13850700 03348101 13010102 67800000  .....4......g...
 80002390 130101ff 23348100 13040101 97070000  ....#4..........
 800023a0 9387c76e 83b70700 93874701 83a70700  ...n......G.....
 800023b0 9b870700 93f71700 9b870700 13850700  ................
 800023c0 03348100 13010101 67800000 130101ff  .4......g.......
 800023d0 23341100 23308100 13040101 13000000  #4..#0..........
 800023e0 eff01ffb 93070500 e38c07fe 97070000  ................
 800023f0 9387c769 83b70700 83a70700 9b870700  ...i............
 80002400 93f7f70f 9b870700 13850700 83308100  .............0..
 80002410 03340100 13010101 67800000 130101fe  .4......g.......
 80002420 233c1100 23388100 13040102 2334a4fe  #<..#8......#4..
 80002430 6f00c001 833784fe 13871700 2334e4fe  o....7......#4..
 80002440 83c70700 13850700 eff09ff0 833784fe  .............7..
 80002450 83c70700 e39007fe 1305a000 eff05fef  .............._.
 80002460 13000000 83308101 03340101 13010102  .....0...4......
 80002470 67800000 130101b9 23341142 23308142  g.......#4.B#0.B
 80002480 13040143 233ca4bc 2334b400 2338c400  ...C#<..#4..#8..
 80002490 233cd400 2330e402 2334f402 23380403  #<..#0..#4..#8..
 800024a0 233c1403 93070404 2338f4bc 833704bd  #<......#8...7..
 800024b0 938787fc 2334f4be 033784be 930704bf  ....#4...7......
 800024c0 13060700 833584bd 13850700 efe05fb4  .....5........_.
 800024d0 930704bf 13850700 eff05ff4 13000000  .........._.....
 800024e0 83308142 03340142 13010147 67800000  .0.B.4.B...Gg...
Contents of section .data:
 800024f0 38000080 00000000 68000080 00000000  8.......h.......
 80002500 98000080 00000000 c8000080 00000000  ................
 80002510 f8000080 00000000 28010080 00000000  ........(.......
 80002520 58010080 00000000 88010080 00000000  X...............
 80002530 b8010080 00000000 e8010080 00000000  ................
Contents of section .rodata:
 80002540 66756e63 5f300a00 66756e63 5f310a00  func_0..func_1..
 80002550 66756e63 5f320a00 66756e63 5f330a00  func_2..func_3..
 80002560 66756e63 5f340a00 66756e63 5f350a00  func_4..func_5..
 80002570 66756e63 5f360a00 66756e63 5f370a00  func_6..func_7..
 80002580 66756e63 5f380a00 66756e63 5f390a00  func_8..func_9..
 80002590 00000000 02000000 00000000 06000000  ................
 800025a0 00000000 02000000 00000000 03000000  ................
 800025b0 08000000 05000000 00000000 03000000  ................
 800025c0 00000000 00000000 07000000 06000000  ................
 800025d0 08000000 00000000 00000000 09000000  ................
 800025e0 00000000 05000000 07000000 09000000  ................
 800025f0 00000000 00000000 00000000 01000000  ................
 80002600 0a000000 00000000 02000000 06000000  ................
 80002610 00000000 03000000 05000000 01000000  ................
 80002620 03000000 0f000000 02000000 03000000  ................
 80002630 04000000 00000000 30313233 34353637  ........01234567
 80002640 38394142 43444546 4748494a 4b4c4d4e  89ABCDEFGHIJKLMN
 80002650 4f505152 53545556 5758595a 00000000  OPQRSTUVWXYZ....
 80002660 00000000 04000000 00000000 00000000  ................
 80002670 00000000 00000000 00000000 08000000  ................
 80002680 00000000 04000000 00000000 08000000  ................
 80002690 00000000 00000000 00000000 00000000  ................
 800026a0 0b000000 00000000 00000000 08000000  ................
 800026b0 00000000 07000000 00000000 04000000  ................
 800026c0 00000000 00000000 02000000 00000000  ................
 800026d0 00000000 07000000 00000000 09000000  ................
 800026e0 0e000000 00000000 00000000 00000000  ................
 800026f0 00000000 00000000 00000000 09000000  ................
 80002700 00000000 0a000000 00000000 00000000  ................
 80002710 00000000 00000000 00000000 04000000  ................
 80002720 0e000000 0a000000 00000000 02000000  ................
 80002730 00000000 00000000 00000000 00000000  ................
 80002740 00000000 00000000 00000000 02000000  ................
 80002750 00000000 01000000 06000000 08000000  ................
 80002760 0b000000 00000000 00000000 00000000  ................
 80002770 00000000 01000000 00000000 07000000  ................
 80002780 00000000 00000000 02000000 00000000  ................
 80002790 00000000 00000000 06000000 07000000  ................
 800027a0 00000000 00000000 00000000 01000000  ................
 800027b0 01000000 00000000 00000000 00000000  ................
 800027c0 00000000 00000000 00000000 01000000  ................
 800027d0 00000000 00000000 01000000 01000000  ................
 800027e0 00000000 00000000 00000000 00000000  ................
 800027f0 01000000 00000000 00000000 00000000  ................
 80002800 00000000 01000000 01000000 00000000  ................
 80002810 00000000 00000000 01000000 00000000  ................
 80002820 00000000 00000000 00000000 00000000  ................
 80002830 01000000 00000000 00000000 01000000  ................
 80002840 00000000 00000000 00000000 00000000  ................
 80002850 00000000 01000000 00000000 00000000  ................
 80002860 00000000 01000000 00000000 00000000  ................
 80002870 00000000 00000000 00000000 01000000  ................
 80002880 00000000 00000000 01000000 00000000  ................
 80002890 00000000 00000000 00000000 00000000  ................
 800028a0 01000000 00000000 00000000 00000000  ................
 800028b0 01000000 01000000 00000000 00000000  ................
 800028c0 00000000 01000000 00000000 00000000  ................
 800028d0 00000000 00000000 00000000 01000000  ................
 800028e0 01000000 01000000 00000000 00000000  ................
 800028f0 00000000 01000000 01000000 00000000  ................
 80002900 00000000 00000000 00000000 00000000  ................
 80002910 00000000 01000000 00000000 00000000  ................
 80002920 01000000 01000000 00000000 00000000  ................
 80002930 00000000 00000000 01000000 00000000  ................
 80002940 00000000 00000000 00000000 01000000  ................
 80002950 01000000 00000000 00000000 00000000  ................
 80002960 01000000 00000000 00000000 00000000  ................
 80002970 00000000 00000000 01000000 00000000  ................
 80002980 00000000 01000000 00000000 00000000  ................
 80002990 00000000 00000000 00000000 01000000  ................
 800029a0 00000000 00000000 00000000 01000000  ................
 800029b0 00000000 00000000 00000000 00000000  ................
 800029c0 00000000 01000000 00000000 00000000  ................
 800029d0 01000000 00000000 00000000 00000000  ................
 800029e0 00000000 00000000 01000000 00000000  ................
 800029f0 00000000 00000000 01000000 01000000  ................
 80002a00 00000000 00000000 00000000 01000000  ................
 80002a10 00000000 00000000 00000000 00000000  ................
 80002a20 00000000 01000000 01000000 01000000  ................
 80002a30 00000000                             ....            
Contents of section .sdata:
 80002a38 004000c0 00000000 000000c0 00000000  .@..............
 80002a48 005000c0 00000000 003000c0 00000000  .P.......0......
 80002a58 803000c0 00000000 005000c0 00000000  .0.......P......
 80002a68 003000c0 00000000 803000c0 00000000  .0.......0......
 80002a78 004000c0 00000000 000000c0 00000000  .@..............
 80002a88 000000c0 00000000                    ........        
Contents of section .riscv.attributes:
 0000 41510000 00726973 63760001 47000000  AQ...riscv..G...
 0010 04100572 76363469 3270315f 6d327030  ...rv64i2p1_m2p0
 0020 5f613270 315f6632 70325f64 3270325f  _a2p1_f2p2_d2p2_
 0030 7a696373 72327030 5f7a6966 656e6365  zicsr2p0_zifence
 0040 69327030 5f7a6d6d 756c3170 30000801  i2p0_zmmul1p0...
 0050 0a0b                                 ..              
Contents of section .comment:
 0000 4743433a 20286732 65653565 34333030  GCC: (g2ee5e4300
 0010 31382920 31322e32 2e3000             18) 12.2.0.     

Disassembly of section .text:

0000000080000000 <_start>:
    80000000:	f14022f3          	csrr	t0,mhartid
    80000004:	02029063          	bnez	t0,80000024 <park>
    80000008:	00013117          	auipc	sp,0x13
    8000000c:	a8810113          	add	sp,sp,-1400 # 80012a90 <_end>
    80000010:	2080006f          	j	80000218 <main>
    80000014:	00000013          	nop
    80000018:	00000013          	nop
    8000001c:	00000013          	nop
    80000020:	0040006f          	j	80000024 <park>

0000000080000024 <park>:
    80000024:	00000013          	nop
    80000028:	00000013          	nop
    8000002c:	00000013          	nop
    80000030:	10500073          	wfi
    80000034:	ff1ff06f          	j	80000024 <park>

0000000080000038 <func_0>:
    80000038:	ff010113          	add	sp,sp,-16
    8000003c:	00113423          	sd	ra,8(sp)
    80000040:	00813023          	sd	s0,0(sp)
    80000044:	01010413          	add	s0,sp,16
    80000048:	00002517          	auipc	a0,0x2
    8000004c:	4f850513          	add	a0,a0,1272 # 80002540 <func_ptr+0x50>
    80000050:	424020ef          	jal	80002474 <uart_pynq_printf>
    80000054:	00000013          	nop
    80000058:	00813083          	ld	ra,8(sp)
    8000005c:	00013403          	ld	s0,0(sp)
    80000060:	01010113          	add	sp,sp,16
    80000064:	00008067          	ret

0000000080000068 <func_1>:
    80000068:	ff010113          	add	sp,sp,-16
    8000006c:	00113423          	sd	ra,8(sp)
    80000070:	00813023          	sd	s0,0(sp)
    80000074:	01010413          	add	s0,sp,16
    80000078:	00002517          	auipc	a0,0x2
    8000007c:	4d050513          	add	a0,a0,1232 # 80002548 <func_ptr+0x58>
    80000080:	3f4020ef          	jal	80002474 <uart_pynq_printf>
    80000084:	00000013          	nop
    80000088:	00813083          	ld	ra,8(sp)
    8000008c:	00013403          	ld	s0,0(sp)
    80000090:	01010113          	add	sp,sp,16
    80000094:	00008067          	ret

0000000080000098 <func_2>:
    80000098:	ff010113          	add	sp,sp,-16
    8000009c:	00113423          	sd	ra,8(sp)
    800000a0:	00813023          	sd	s0,0(sp)
    800000a4:	01010413          	add	s0,sp,16
    800000a8:	00002517          	auipc	a0,0x2
    800000ac:	4a850513          	add	a0,a0,1192 # 80002550 <func_ptr+0x60>
    800000b0:	3c4020ef          	jal	80002474 <uart_pynq_printf>
    800000b4:	00000013          	nop
    800000b8:	00813083          	ld	ra,8(sp)
    800000bc:	00013403          	ld	s0,0(sp)
    800000c0:	01010113          	add	sp,sp,16
    800000c4:	00008067          	ret

00000000800000c8 <func_3>:
    800000c8:	ff010113          	add	sp,sp,-16
    800000cc:	00113423          	sd	ra,8(sp)
    800000d0:	00813023          	sd	s0,0(sp)
    800000d4:	01010413          	add	s0,sp,16
    800000d8:	00002517          	auipc	a0,0x2
    800000dc:	48050513          	add	a0,a0,1152 # 80002558 <func_ptr+0x68>
    800000e0:	394020ef          	jal	80002474 <uart_pynq_printf>
    800000e4:	00000013          	nop
    800000e8:	00813083          	ld	ra,8(sp)
    800000ec:	00013403          	ld	s0,0(sp)
    800000f0:	01010113          	add	sp,sp,16
    800000f4:	00008067          	ret

00000000800000f8 <func_4>:
    800000f8:	ff010113          	add	sp,sp,-16
    800000fc:	00113423          	sd	ra,8(sp)
    80000100:	00813023          	sd	s0,0(sp)
    80000104:	01010413          	add	s0,sp,16
    80000108:	00002517          	auipc	a0,0x2
    8000010c:	45850513          	add	a0,a0,1112 # 80002560 <func_ptr+0x70>
    80000110:	364020ef          	jal	80002474 <uart_pynq_printf>
    80000114:	00000013          	nop
    80000118:	00813083          	ld	ra,8(sp)
    8000011c:	00013403          	ld	s0,0(sp)
    80000120:	01010113          	add	sp,sp,16
    80000124:	00008067          	ret

0000000080000128 <func_5>:
    80000128:	ff010113          	add	sp,sp,-16
    8000012c:	00113423          	sd	ra,8(sp)
    80000130:	00813023          	sd	s0,0(sp)
    80000134:	01010413          	add	s0,sp,16
    80000138:	00002517          	auipc	a0,0x2
    8000013c:	43050513          	add	a0,a0,1072 # 80002568 <func_ptr+0x78>
    80000140:	334020ef          	jal	80002474 <uart_pynq_printf>
    80000144:	00000013          	nop
    80000148:	00813083          	ld	ra,8(sp)
    8000014c:	00013403          	ld	s0,0(sp)
    80000150:	01010113          	add	sp,sp,16
    80000154:	00008067          	ret

0000000080000158 <func_6>:
    80000158:	ff010113          	add	sp,sp,-16
    8000015c:	00113423          	sd	ra,8(sp)
    80000160:	00813023          	sd	s0,0(sp)
    80000164:	01010413          	add	s0,sp,16
    80000168:	00002517          	auipc	a0,0x2
    8000016c:	40850513          	add	a0,a0,1032 # 80002570 <func_ptr+0x80>
    80000170:	304020ef          	jal	80002474 <uart_pynq_printf>
    80000174:	00000013          	nop
    80000178:	00813083          	ld	ra,8(sp)
    8000017c:	00013403          	ld	s0,0(sp)
    80000180:	01010113          	add	sp,sp,16
    80000184:	00008067          	ret

0000000080000188 <func_7>:
    80000188:	ff010113          	add	sp,sp,-16
    8000018c:	00113423          	sd	ra,8(sp)
    80000190:	00813023          	sd	s0,0(sp)
    80000194:	01010413          	add	s0,sp,16
    80000198:	00002517          	auipc	a0,0x2
    8000019c:	3e050513          	add	a0,a0,992 # 80002578 <func_ptr+0x88>
    800001a0:	2d4020ef          	jal	80002474 <uart_pynq_printf>
    800001a4:	00000013          	nop
    800001a8:	00813083          	ld	ra,8(sp)
    800001ac:	00013403          	ld	s0,0(sp)
    800001b0:	01010113          	add	sp,sp,16
    800001b4:	00008067          	ret

00000000800001b8 <func_8>:
    800001b8:	ff010113          	add	sp,sp,-16
    800001bc:	00113423          	sd	ra,8(sp)
    800001c0:	00813023          	sd	s0,0(sp)
    800001c4:	01010413          	add	s0,sp,16
    800001c8:	00002517          	auipc	a0,0x2
    800001cc:	3b850513          	add	a0,a0,952 # 80002580 <func_ptr+0x90>
    800001d0:	2a4020ef          	jal	80002474 <uart_pynq_printf>
    800001d4:	00000013          	nop
    800001d8:	00813083          	ld	ra,8(sp)
    800001dc:	00013403          	ld	s0,0(sp)
    800001e0:	01010113          	add	sp,sp,16
    800001e4:	00008067          	ret

00000000800001e8 <func_9>:
    800001e8:	ff010113          	add	sp,sp,-16
    800001ec:	00113423          	sd	ra,8(sp)
    800001f0:	00813023          	sd	s0,0(sp)
    800001f4:	01010413          	add	s0,sp,16
    800001f8:	00002517          	auipc	a0,0x2
    800001fc:	39050513          	add	a0,a0,912 # 80002588 <func_ptr+0x98>
    80000200:	274020ef          	jal	80002474 <uart_pynq_printf>
    80000204:	00000013          	nop
    80000208:	00813083          	ld	ra,8(sp)
    8000020c:	00013403          	ld	s0,0(sp)
    80000210:	01010113          	add	sp,sp,16
    80000214:	00008067          	ret

0000000080000218 <main>:
    80000218:	fd010113          	add	sp,sp,-48
    8000021c:	02113423          	sd	ra,40(sp)
    80000220:	02813023          	sd	s0,32(sp)
    80000224:	03010413          	add	s0,sp,48
    80000228:	00050793          	mv	a5,a0
    8000022c:	fcb43823          	sd	a1,-48(s0)
    80000230:	fcf42e23          	sw	a5,-36(s0)
    80000234:	00100793          	li	a5,1
    80000238:	fef42623          	sw	a5,-20(s0)
    8000023c:	0500006f          	j	8000028c <main+0x74>
    80000240:	fec42783          	lw	a5,-20(s0)
    80000244:	00379793          	sll	a5,a5,0x3
    80000248:	fd043703          	ld	a4,-48(s0)
    8000024c:	00f707b3          	add	a5,a4,a5
    80000250:	0007b783          	ld	a5,0(a5)
    80000254:	00078513          	mv	a0,a5
    80000258:	16c010ef          	jal	800013c4 <atoi>
    8000025c:	00050793          	mv	a5,a0
    80000260:	fef42423          	sw	a5,-24(s0)
    80000264:	00002717          	auipc	a4,0x2
    80000268:	28c70713          	add	a4,a4,652 # 800024f0 <func_ptr>
    8000026c:	fe842783          	lw	a5,-24(s0)
    80000270:	00379793          	sll	a5,a5,0x3
    80000274:	00f707b3          	add	a5,a4,a5
    80000278:	0007b783          	ld	a5,0(a5)
    8000027c:	000780e7          	jalr	a5
    80000280:	fec42783          	lw	a5,-20(s0)
    80000284:	0017879b          	addw	a5,a5,1
    80000288:	fef42623          	sw	a5,-20(s0)
    8000028c:	fec42783          	lw	a5,-20(s0)
    80000290:	00078713          	mv	a4,a5
    80000294:	fdc42783          	lw	a5,-36(s0)
    80000298:	0007071b          	sext.w	a4,a4
    8000029c:	0007879b          	sext.w	a5,a5
    800002a0:	faf740e3          	blt	a4,a5,80000240 <main+0x28>
    800002a4:	425000ef          	jal	80000ec8 <kruskalAlgo_simple_call>
    800002a8:	4e4000ef          	jal	8000078c <primAlgo_simple_call>
    800002ac:	415010ef          	jal	80001ec0 <dijkstra_simple_call>
    800002b0:	60d010ef          	jal	800020bc <bfs_simple_call>
    800002b4:	7d1010ef          	jal	80002284 <dfs_simple_call>
    800002b8:	00000793          	li	a5,0
    800002bc:	00078513          	mv	a0,a5
    800002c0:	02813083          	ld	ra,40(sp)
    800002c4:	02013403          	ld	s0,32(sp)
    800002c8:	03010113          	add	sp,sp,48
    800002cc:	00008067          	ret

00000000800002d0 <minKey>:
    800002d0:	fd010113          	add	sp,sp,-48
    800002d4:	02813423          	sd	s0,40(sp)
    800002d8:	03010413          	add	s0,sp,48
    800002dc:	fca43c23          	sd	a0,-40(s0)
    800002e0:	fcb43823          	sd	a1,-48(s0)
    800002e4:	800007b7          	lui	a5,0x80000
    800002e8:	fff7c793          	not	a5,a5
    800002ec:	fef42623          	sw	a5,-20(s0)
    800002f0:	fe042223          	sw	zero,-28(s0)
    800002f4:	06c0006f          	j	80000360 <minKey+0x90>
    800002f8:	fe442783          	lw	a5,-28(s0)
    800002fc:	fd043703          	ld	a4,-48(s0)
    80000300:	00f707b3          	add	a5,a4,a5
    80000304:	0007c783          	lbu	a5,0(a5) # ffffffff80000000 <_end+0xfffffffefffed570>
    80000308:	0017c793          	xor	a5,a5,1
    8000030c:	0ff7f793          	zext.b	a5,a5
    80000310:	04078263          	beqz	a5,80000354 <minKey+0x84>
    80000314:	fe442783          	lw	a5,-28(s0)
    80000318:	00279793          	sll	a5,a5,0x2
    8000031c:	fd843703          	ld	a4,-40(s0)
    80000320:	00f707b3          	add	a5,a4,a5
    80000324:	0007a703          	lw	a4,0(a5)
    80000328:	fec42783          	lw	a5,-20(s0)
    8000032c:	0007879b          	sext.w	a5,a5
    80000330:	02f75263          	bge	a4,a5,80000354 <minKey+0x84>
    80000334:	fe442783          	lw	a5,-28(s0)
    80000338:	00279793          	sll	a5,a5,0x2
    8000033c:	fd843703          	ld	a4,-40(s0)
    80000340:	00f707b3          	add	a5,a4,a5
    80000344:	0007a783          	lw	a5,0(a5)
    80000348:	fef42623          	sw	a5,-20(s0)
    8000034c:	fe442783          	lw	a5,-28(s0)
    80000350:	fef42423          	sw	a5,-24(s0)
    80000354:	fe442783          	lw	a5,-28(s0)
    80000358:	0017879b          	addw	a5,a5,1
    8000035c:	fef42223          	sw	a5,-28(s0)
    80000360:	fe442783          	lw	a5,-28(s0)
    80000364:	0007871b          	sext.w	a4,a5
    80000368:	00400793          	li	a5,4
    8000036c:	f8e7d6e3          	bge	a5,a4,800002f8 <minKey+0x28>
    80000370:	fe842783          	lw	a5,-24(s0)
    80000374:	00078513          	mv	a0,a5
    80000378:	02813403          	ld	s0,40(sp)
    8000037c:	03010113          	add	sp,sp,48
    80000380:	00008067          	ret

0000000080000384 <primAlgo>:
    80000384:	ee010113          	add	sp,sp,-288
    80000388:	10113c23          	sd	ra,280(sp)
    8000038c:	10813823          	sd	s0,272(sp)
    80000390:	10913423          	sd	s1,264(sp)
    80000394:	11213023          	sd	s2,256(sp)
    80000398:	0f313c23          	sd	s3,248(sp)
    8000039c:	0f413823          	sd	s4,240(sp)
    800003a0:	0f513423          	sd	s5,232(sp)
    800003a4:	0f613023          	sd	s6,224(sp)
    800003a8:	0d713c23          	sd	s7,216(sp)
    800003ac:	0d813823          	sd	s8,208(sp)
    800003b0:	0d913423          	sd	s9,200(sp)
    800003b4:	0da13023          	sd	s10,192(sp)
    800003b8:	0bb13c23          	sd	s11,184(sp)
    800003bc:	12010413          	add	s0,sp,288
    800003c0:	00050793          	mv	a5,a0
    800003c4:	f2b43823          	sd	a1,-208(s0)
    800003c8:	f2f42e23          	sw	a5,-196(s0)
    800003cc:	f3c42483          	lw	s1,-196(s0)
    800003d0:	00048793          	mv	a5,s1
    800003d4:	fff78793          	add	a5,a5,-1
    800003d8:	f6f43c23          	sd	a5,-136(s0)
    800003dc:	00048793          	mv	a5,s1
    800003e0:	00078813          	mv	a6,a5
    800003e4:	00000893          	li	a7,0
    800003e8:	03b85793          	srl	a5,a6,0x3b
    800003ec:	00589693          	sll	a3,a7,0x5
    800003f0:	00d7e6b3          	or	a3,a5,a3
    800003f4:	00581613          	sll	a2,a6,0x5
    800003f8:	00010793          	mv	a5,sp
    800003fc:	eef43423          	sd	a5,-280(s0)
    80000400:	f3c42703          	lw	a4,-196(s0)
    80000404:	00070793          	mv	a5,a4
    80000408:	fff78793          	add	a5,a5,-1
    8000040c:	f6f43823          	sd	a5,-144(s0)
    80000410:	00070793          	mv	a5,a4
    80000414:	00078c13          	mv	s8,a5
    80000418:	00000c93          	li	s9,0
    8000041c:	03bc5793          	srl	a5,s8,0x3b
    80000420:	005c9b93          	sll	s7,s9,0x5
    80000424:	0177ebb3          	or	s7,a5,s7
    80000428:	005c1b13          	sll	s6,s8,0x5
    8000042c:	00070793          	mv	a5,a4
    80000430:	f2f43023          	sd	a5,-224(s0)
    80000434:	f2043423          	sd	zero,-216(s0)
    80000438:	f2043783          	ld	a5,-224(s0)
    8000043c:	03b7d793          	srl	a5,a5,0x3b
    80000440:	f2843683          	ld	a3,-216(s0)
    80000444:	00569a93          	sll	s5,a3,0x5
    80000448:	0157eab3          	or	s5,a5,s5
    8000044c:	f2043783          	ld	a5,-224(s0)
    80000450:	00579a13          	sll	s4,a5,0x5
    80000454:	00070793          	mv	a5,a4
    80000458:	00279793          	sll	a5,a5,0x2
    8000045c:	00f78793          	add	a5,a5,15
    80000460:	0047d793          	srl	a5,a5,0x4
    80000464:	00479793          	sll	a5,a5,0x4
    80000468:	40f10133          	sub	sp,sp,a5
    8000046c:	00010793          	mv	a5,sp
    80000470:	00378793          	add	a5,a5,3
    80000474:	0027d793          	srl	a5,a5,0x2
    80000478:	00279793          	sll	a5,a5,0x2
    8000047c:	f6f43423          	sd	a5,-152(s0)
    80000480:	f3c42783          	lw	a5,-196(s0)
    80000484:	00078713          	mv	a4,a5
    80000488:	fff70713          	add	a4,a4,-1
    8000048c:	f6e43023          	sd	a4,-160(s0)
    80000490:	00078713          	mv	a4,a5
    80000494:	f0e43823          	sd	a4,-240(s0)
    80000498:	f0043c23          	sd	zero,-232(s0)
    8000049c:	f1043703          	ld	a4,-240(s0)
    800004a0:	03b75713          	srl	a4,a4,0x3b
    800004a4:	f1843683          	ld	a3,-232(s0)
    800004a8:	00569993          	sll	s3,a3,0x5
    800004ac:	013769b3          	or	s3,a4,s3
    800004b0:	f1043703          	ld	a4,-240(s0)
    800004b4:	00571913          	sll	s2,a4,0x5
    800004b8:	00078713          	mv	a4,a5
    800004bc:	f0e43023          	sd	a4,-256(s0)
    800004c0:	f0043423          	sd	zero,-248(s0)
    800004c4:	f0043703          	ld	a4,-256(s0)
    800004c8:	03b75713          	srl	a4,a4,0x3b
    800004cc:	f0843683          	ld	a3,-248(s0)
    800004d0:	00569f93          	sll	t6,a3,0x5
    800004d4:	01f76fb3          	or	t6,a4,t6
    800004d8:	f0043703          	ld	a4,-256(s0)
    800004dc:	00571f13          	sll	t5,a4,0x5
    800004e0:	00279793          	sll	a5,a5,0x2
    800004e4:	00f78793          	add	a5,a5,15
    800004e8:	0047d793          	srl	a5,a5,0x4
    800004ec:	00479793          	sll	a5,a5,0x4
    800004f0:	40f10133          	sub	sp,sp,a5
    800004f4:	00010793          	mv	a5,sp
    800004f8:	00378793          	add	a5,a5,3
    800004fc:	0027d793          	srl	a5,a5,0x2
    80000500:	00279793          	sll	a5,a5,0x2
    80000504:	f4f43c23          	sd	a5,-168(s0)
    80000508:	f3c42783          	lw	a5,-196(s0)
    8000050c:	00078713          	mv	a4,a5
    80000510:	fff70713          	add	a4,a4,-1
    80000514:	f4e43823          	sd	a4,-176(s0)
    80000518:	00078713          	mv	a4,a5
    8000051c:	eee43823          	sd	a4,-272(s0)
    80000520:	ee043c23          	sd	zero,-264(s0)
    80000524:	ef043703          	ld	a4,-272(s0)
    80000528:	03d75713          	srl	a4,a4,0x3d
    8000052c:	ef843683          	ld	a3,-264(s0)
    80000530:	00369e93          	sll	t4,a3,0x3
    80000534:	01d76eb3          	or	t4,a4,t4
    80000538:	ef043703          	ld	a4,-272(s0)
    8000053c:	00371e13          	sll	t3,a4,0x3
    80000540:	00078713          	mv	a4,a5
    80000544:	00070d13          	mv	s10,a4
    80000548:	00000d93          	li	s11,0
    8000054c:	03dd5713          	srl	a4,s10,0x3d
    80000550:	003d9393          	sll	t2,s11,0x3
    80000554:	007763b3          	or	t2,a4,t2
    80000558:	003d1313          	sll	t1,s10,0x3
    8000055c:	00f78793          	add	a5,a5,15
    80000560:	0047d793          	srl	a5,a5,0x4
    80000564:	00479793          	sll	a5,a5,0x4
    80000568:	40f10133          	sub	sp,sp,a5
    8000056c:	00010793          	mv	a5,sp
    80000570:	00078793          	mv	a5,a5
    80000574:	f4f43423          	sd	a5,-184(s0)
    80000578:	f8042623          	sw	zero,-116(s0)
    8000057c:	03c0006f          	j	800005b8 <primAlgo+0x234>
    80000580:	f5843703          	ld	a4,-168(s0)
    80000584:	f8c42783          	lw	a5,-116(s0)
    80000588:	00279793          	sll	a5,a5,0x2
    8000058c:	00f707b3          	add	a5,a4,a5
    80000590:	80000737          	lui	a4,0x80000
    80000594:	fff74713          	not	a4,a4
    80000598:	00e7a023          	sw	a4,0(a5)
    8000059c:	f4843703          	ld	a4,-184(s0)
    800005a0:	f8c42783          	lw	a5,-116(s0)
    800005a4:	00f707b3          	add	a5,a4,a5
    800005a8:	00078023          	sb	zero,0(a5)
    800005ac:	f8c42783          	lw	a5,-116(s0)
    800005b0:	0017879b          	addw	a5,a5,1
    800005b4:	f8f42623          	sw	a5,-116(s0)
    800005b8:	f8c42783          	lw	a5,-116(s0)
    800005bc:	00078713          	mv	a4,a5
    800005c0:	f3c42783          	lw	a5,-196(s0)
    800005c4:	0007071b          	sext.w	a4,a4
    800005c8:	0007879b          	sext.w	a5,a5
    800005cc:	faf74ae3          	blt	a4,a5,80000580 <primAlgo+0x1fc>
    800005d0:	f5843783          	ld	a5,-168(s0)
    800005d4:	0007a023          	sw	zero,0(a5)
    800005d8:	f6843783          	ld	a5,-152(s0)
    800005dc:	fff00713          	li	a4,-1
    800005e0:	00e7a023          	sw	a4,0(a5)
    800005e4:	f8042423          	sw	zero,-120(s0)
    800005e8:	1440006f          	j	8000072c <primAlgo+0x3a8>
    800005ec:	f4843583          	ld	a1,-184(s0)
    800005f0:	f5843503          	ld	a0,-168(s0)
    800005f4:	cddff0ef          	jal	800002d0 <minKey>
    800005f8:	00050793          	mv	a5,a0
    800005fc:	f4f42223          	sw	a5,-188(s0)
    80000600:	f4843703          	ld	a4,-184(s0)
    80000604:	f4442783          	lw	a5,-188(s0)
    80000608:	00f707b3          	add	a5,a4,a5
    8000060c:	00100713          	li	a4,1
    80000610:	00e78023          	sb	a4,0(a5)
    80000614:	f8042223          	sw	zero,-124(s0)
    80000618:	0f00006f          	j	80000708 <primAlgo+0x384>
    8000061c:	f4442783          	lw	a5,-188(s0)
    80000620:	00048713          	mv	a4,s1
    80000624:	02e787b3          	mul	a5,a5,a4
    80000628:	00279793          	sll	a5,a5,0x2
    8000062c:	f3043703          	ld	a4,-208(s0)
    80000630:	00f70733          	add	a4,a4,a5
    80000634:	f8442783          	lw	a5,-124(s0)
    80000638:	00279793          	sll	a5,a5,0x2
    8000063c:	00f707b3          	add	a5,a4,a5
    80000640:	0007a783          	lw	a5,0(a5)
    80000644:	0a078c63          	beqz	a5,800006fc <primAlgo+0x378>
    80000648:	f4843703          	ld	a4,-184(s0)
    8000064c:	f8442783          	lw	a5,-124(s0)
    80000650:	00f707b3          	add	a5,a4,a5
    80000654:	0007c783          	lbu	a5,0(a5)
    80000658:	0017c793          	xor	a5,a5,1
    8000065c:	0ff7f793          	zext.b	a5,a5
    80000660:	08078e63          	beqz	a5,800006fc <primAlgo+0x378>
    80000664:	f4442783          	lw	a5,-188(s0)
    80000668:	00048713          	mv	a4,s1
    8000066c:	02e787b3          	mul	a5,a5,a4
    80000670:	00279793          	sll	a5,a5,0x2
    80000674:	f3043703          	ld	a4,-208(s0)
    80000678:	00f70733          	add	a4,a4,a5
    8000067c:	f8442783          	lw	a5,-124(s0)
    80000680:	00279793          	sll	a5,a5,0x2
    80000684:	00f707b3          	add	a5,a4,a5
    80000688:	0007a683          	lw	a3,0(a5)
    8000068c:	f5843703          	ld	a4,-168(s0)
    80000690:	f8442783          	lw	a5,-124(s0)
    80000694:	00279793          	sll	a5,a5,0x2
    80000698:	00f707b3          	add	a5,a4,a5
    8000069c:	0007a783          	lw	a5,0(a5)
    800006a0:	00068713          	mv	a4,a3
    800006a4:	04f75c63          	bge	a4,a5,800006fc <primAlgo+0x378>
    800006a8:	f6843703          	ld	a4,-152(s0)
    800006ac:	f8442783          	lw	a5,-124(s0)
    800006b0:	00279793          	sll	a5,a5,0x2
    800006b4:	00f707b3          	add	a5,a4,a5
    800006b8:	f4442703          	lw	a4,-188(s0)
    800006bc:	00e7a023          	sw	a4,0(a5)
    800006c0:	f4442783          	lw	a5,-188(s0)
    800006c4:	00048713          	mv	a4,s1
    800006c8:	02e787b3          	mul	a5,a5,a4
    800006cc:	00279793          	sll	a5,a5,0x2
    800006d0:	f3043703          	ld	a4,-208(s0)
    800006d4:	00f70733          	add	a4,a4,a5
    800006d8:	f8442783          	lw	a5,-124(s0)
    800006dc:	00279793          	sll	a5,a5,0x2
    800006e0:	00f707b3          	add	a5,a4,a5
    800006e4:	0007a703          	lw	a4,0(a5)
    800006e8:	f5843683          	ld	a3,-168(s0)
    800006ec:	f8442783          	lw	a5,-124(s0)
    800006f0:	00279793          	sll	a5,a5,0x2
    800006f4:	00f687b3          	add	a5,a3,a5
    800006f8:	00e7a023          	sw	a4,0(a5)
    800006fc:	f8442783          	lw	a5,-124(s0)
    80000700:	0017879b          	addw	a5,a5,1
    80000704:	f8f42223          	sw	a5,-124(s0)
    80000708:	f8442783          	lw	a5,-124(s0)
    8000070c:	00078713          	mv	a4,a5
    80000710:	f3c42783          	lw	a5,-196(s0)
    80000714:	0007071b          	sext.w	a4,a4
    80000718:	0007879b          	sext.w	a5,a5
    8000071c:	f0f740e3          	blt	a4,a5,8000061c <primAlgo+0x298>
    80000720:	f8842783          	lw	a5,-120(s0)
    80000724:	0017879b          	addw	a5,a5,1
    80000728:	f8f42423          	sw	a5,-120(s0)
    8000072c:	f3c42783          	lw	a5,-196(s0)
    80000730:	fff7879b          	addw	a5,a5,-1
    80000734:	0007871b          	sext.w	a4,a5
    80000738:	f8842783          	lw	a5,-120(s0)
    8000073c:	0007879b          	sext.w	a5,a5
    80000740:	eae7c6e3          	blt	a5,a4,800005ec <primAlgo+0x268>
    80000744:	ee843103          	ld	sp,-280(s0)
    80000748:	00000013          	nop
    8000074c:	ee040113          	add	sp,s0,-288
    80000750:	11813083          	ld	ra,280(sp)
    80000754:	11013403          	ld	s0,272(sp)
    80000758:	10813483          	ld	s1,264(sp)
    8000075c:	10013903          	ld	s2,256(sp)
    80000760:	0f813983          	ld	s3,248(sp)
    80000764:	0f013a03          	ld	s4,240(sp)
    80000768:	0e813a83          	ld	s5,232(sp)
    8000076c:	0e013b03          	ld	s6,224(sp)
    80000770:	0d813b83          	ld	s7,216(sp)
    80000774:	0d013c03          	ld	s8,208(sp)
    80000778:	0c813c83          	ld	s9,200(sp)
    8000077c:	0c013d03          	ld	s10,192(sp)
    80000780:	0b813d83          	ld	s11,184(sp)
    80000784:	12010113          	add	sp,sp,288
    80000788:	00008067          	ret

000000008000078c <primAlgo_simple_call>:
    8000078c:	f8010113          	add	sp,sp,-128
    80000790:	06113c23          	sd	ra,120(sp)
    80000794:	06813823          	sd	s0,112(sp)
    80000798:	08010413          	add	s0,sp,128
    8000079c:	00002717          	auipc	a4,0x2
    800007a0:	df470713          	add	a4,a4,-524 # 80002590 <func_ptr+0xa0>
    800007a4:	f8840793          	add	a5,s0,-120
    800007a8:	00070693          	mv	a3,a4
    800007ac:	06400713          	li	a4,100
    800007b0:	00070613          	mv	a2,a4
    800007b4:	00068593          	mv	a1,a3
    800007b8:	00078513          	mv	a0,a5
    800007bc:	63d000ef          	jal	800015f8 <memcpy>
    800007c0:	f8840793          	add	a5,s0,-120
    800007c4:	00078593          	mv	a1,a5
    800007c8:	00500513          	li	a0,5
    800007cc:	bb9ff0ef          	jal	80000384 <primAlgo>
    800007d0:	00000013          	nop
    800007d4:	00078513          	mv	a0,a5
    800007d8:	07813083          	ld	ra,120(sp)
    800007dc:	07013403          	ld	s0,112(sp)
    800007e0:	08010113          	add	sp,sp,128
    800007e4:	00008067          	ret

00000000800007e8 <get_ticks_count>:
    800007e8:	ff010113          	add	sp,sp,-16
    800007ec:	00813423          	sd	s0,8(sp)
    800007f0:	01010413          	add	s0,sp,16
    800007f4:	00002797          	auipc	a5,0x2
    800007f8:	26c78793          	add	a5,a5,620 # 80002a60 <utils_rom>
    800007fc:	0007b783          	ld	a5,0(a5)
    80000800:	0007b783          	ld	a5,0(a5)
    80000804:	00078513          	mv	a0,a5
    80000808:	00813403          	ld	s0,8(sp)
    8000080c:	01010113          	add	sp,sp,16
    80000810:	00008067          	ret

0000000080000814 <get_overlay_ticks_count>:
    80000814:	ff010113          	add	sp,sp,-16
    80000818:	00813423          	sd	s0,8(sp)
    8000081c:	01010413          	add	s0,sp,16
    80000820:	00002797          	auipc	a5,0x2
    80000824:	24078793          	add	a5,a5,576 # 80002a60 <utils_rom>
    80000828:	0007b783          	ld	a5,0(a5)
    8000082c:	00878793          	add	a5,a5,8
    80000830:	0007b783          	ld	a5,0(a5)
    80000834:	00078513          	mv	a0,a5
    80000838:	00813403          	ld	s0,8(sp)
    8000083c:	01010113          	add	sp,sp,16
    80000840:	00008067          	ret

0000000080000844 <get_random_number>:
    80000844:	ff010113          	add	sp,sp,-16
    80000848:	00813423          	sd	s0,8(sp)
    8000084c:	01010413          	add	s0,sp,16
    80000850:	00002797          	auipc	a5,0x2
    80000854:	21078793          	add	a5,a5,528 # 80002a60 <utils_rom>
    80000858:	0007b783          	ld	a5,0(a5)
    8000085c:	01078793          	add	a5,a5,16
    80000860:	0007b783          	ld	a5,0(a5)
    80000864:	00078513          	mv	a0,a5
    80000868:	00813403          	ld	s0,8(sp)
    8000086c:	01010113          	add	sp,sp,16
    80000870:	00008067          	ret

0000000080000874 <wait_ms>:
    80000874:	fc010113          	add	sp,sp,-64
    80000878:	02113c23          	sd	ra,56(sp)
    8000087c:	02813823          	sd	s0,48(sp)
    80000880:	04010413          	add	s0,sp,64
    80000884:	fca43423          	sd	a0,-56(s0)
    80000888:	f61ff0ef          	jal	800007e8 <get_ticks_count>
    8000088c:	fea43423          	sd	a0,-24(s0)
    80000890:	0000c7b7          	lui	a5,0xc
    80000894:	35078793          	add	a5,a5,848 # c350 <STACK_SIZE-0x3cb0>
    80000898:	fef43023          	sd	a5,-32(s0)
    8000089c:	fc843703          	ld	a4,-56(s0)
    800008a0:	fe043783          	ld	a5,-32(s0)
    800008a4:	02f707b3          	mul	a5,a4,a5
    800008a8:	fcf43c23          	sd	a5,-40(s0)
    800008ac:	00000013          	nop
    800008b0:	f39ff0ef          	jal	800007e8 <get_ticks_count>
    800008b4:	00050713          	mv	a4,a0
    800008b8:	fe843783          	ld	a5,-24(s0)
    800008bc:	40f707b3          	sub	a5,a4,a5
    800008c0:	fd843703          	ld	a4,-40(s0)
    800008c4:	fee7e6e3          	bltu	a5,a4,800008b0 <wait_ms+0x3c>
    800008c8:	00000013          	nop
    800008cc:	00000013          	nop
    800008d0:	03813083          	ld	ra,56(sp)
    800008d4:	03013403          	ld	s0,48(sp)
    800008d8:	04010113          	add	sp,sp,64
    800008dc:	00008067          	ret

00000000800008e0 <wait_s>:
    800008e0:	fd010113          	add	sp,sp,-48
    800008e4:	02113423          	sd	ra,40(sp)
    800008e8:	02813023          	sd	s0,32(sp)
    800008ec:	03010413          	add	s0,sp,48
    800008f0:	fca43c23          	sd	a0,-40(s0)
    800008f4:	fe043423          	sd	zero,-24(s0)
    800008f8:	0180006f          	j	80000910 <wait_s+0x30>
    800008fc:	3e800513          	li	a0,1000
    80000900:	f75ff0ef          	jal	80000874 <wait_ms>
    80000904:	fe843783          	ld	a5,-24(s0)
    80000908:	00178793          	add	a5,a5,1
    8000090c:	fef43423          	sd	a5,-24(s0)
    80000910:	fe843703          	ld	a4,-24(s0)
    80000914:	fd843783          	ld	a5,-40(s0)
    80000918:	fef762e3          	bltu	a4,a5,800008fc <wait_s+0x1c>
    8000091c:	00000013          	nop
    80000920:	00000013          	nop
    80000924:	02813083          	ld	ra,40(sp)
    80000928:	02013403          	ld	s0,32(sp)
    8000092c:	03010113          	add	sp,sp,48
    80000930:	00008067          	ret

0000000080000934 <comparator>:
    80000934:	fd010113          	add	sp,sp,-48
    80000938:	02813423          	sd	s0,40(sp)
    8000093c:	03010413          	add	s0,sp,48
    80000940:	fca43c23          	sd	a0,-40(s0)
    80000944:	fcb43823          	sd	a1,-48(s0)
    80000948:	fd843783          	ld	a5,-40(s0)
    8000094c:	fef43423          	sd	a5,-24(s0)
    80000950:	fd043783          	ld	a5,-48(s0)
    80000954:	fef43023          	sd	a5,-32(s0)
    80000958:	fe843783          	ld	a5,-24(s0)
    8000095c:	0087a703          	lw	a4,8(a5)
    80000960:	fe043783          	ld	a5,-32(s0)
    80000964:	0087a783          	lw	a5,8(a5)
    80000968:	40f707bb          	subw	a5,a4,a5
    8000096c:	0007879b          	sext.w	a5,a5
    80000970:	00078513          	mv	a0,a5
    80000974:	02813403          	ld	s0,40(sp)
    80000978:	03010113          	add	sp,sp,48
    8000097c:	00008067          	ret

0000000080000980 <makeSet>:
    80000980:	fc010113          	add	sp,sp,-64
    80000984:	02813c23          	sd	s0,56(sp)
    80000988:	04010413          	add	s0,sp,64
    8000098c:	fca43c23          	sd	a0,-40(s0)
    80000990:	fcb43823          	sd	a1,-48(s0)
    80000994:	00060793          	mv	a5,a2
    80000998:	fcf42623          	sw	a5,-52(s0)
    8000099c:	fe042623          	sw	zero,-20(s0)
    800009a0:	03c0006f          	j	800009dc <makeSet+0x5c>
    800009a4:	fec42783          	lw	a5,-20(s0)
    800009a8:	00279793          	sll	a5,a5,0x2
    800009ac:	fd843703          	ld	a4,-40(s0)
    800009b0:	00f707b3          	add	a5,a4,a5
    800009b4:	fec42703          	lw	a4,-20(s0)
    800009b8:	00e7a023          	sw	a4,0(a5)
    800009bc:	fec42783          	lw	a5,-20(s0)
    800009c0:	00279793          	sll	a5,a5,0x2
    800009c4:	fd043703          	ld	a4,-48(s0)
    800009c8:	00f707b3          	add	a5,a4,a5
    800009cc:	0007a023          	sw	zero,0(a5)
    800009d0:	fec42783          	lw	a5,-20(s0)
    800009d4:	0017879b          	addw	a5,a5,1
    800009d8:	fef42623          	sw	a5,-20(s0)
    800009dc:	fec42783          	lw	a5,-20(s0)
    800009e0:	00078713          	mv	a4,a5
    800009e4:	fcc42783          	lw	a5,-52(s0)
    800009e8:	0007071b          	sext.w	a4,a4
    800009ec:	0007879b          	sext.w	a5,a5
    800009f0:	faf74ae3          	blt	a4,a5,800009a4 <makeSet+0x24>
    800009f4:	00000013          	nop
    800009f8:	00000013          	nop
    800009fc:	03813403          	ld	s0,56(sp)
    80000a00:	04010113          	add	sp,sp,64
    80000a04:	00008067          	ret

0000000080000a08 <findParent>:
    80000a08:	fd010113          	add	sp,sp,-48
    80000a0c:	02113423          	sd	ra,40(sp)
    80000a10:	02813023          	sd	s0,32(sp)
    80000a14:	00913c23          	sd	s1,24(sp)
    80000a18:	03010413          	add	s0,sp,48
    80000a1c:	fca43c23          	sd	a0,-40(s0)
    80000a20:	00058793          	mv	a5,a1
    80000a24:	fcf42a23          	sw	a5,-44(s0)
    80000a28:	fd442783          	lw	a5,-44(s0)
    80000a2c:	00279793          	sll	a5,a5,0x2
    80000a30:	fd843703          	ld	a4,-40(s0)
    80000a34:	00f707b3          	add	a5,a4,a5
    80000a38:	0007a703          	lw	a4,0(a5)
    80000a3c:	fd442783          	lw	a5,-44(s0)
    80000a40:	0007879b          	sext.w	a5,a5
    80000a44:	00e79663          	bne	a5,a4,80000a50 <findParent+0x48>
    80000a48:	fd442783          	lw	a5,-44(s0)
    80000a4c:	0400006f          	j	80000a8c <findParent+0x84>
    80000a50:	fd442783          	lw	a5,-44(s0)
    80000a54:	00279793          	sll	a5,a5,0x2
    80000a58:	fd843703          	ld	a4,-40(s0)
    80000a5c:	00f707b3          	add	a5,a4,a5
    80000a60:	0007a683          	lw	a3,0(a5)
    80000a64:	fd442783          	lw	a5,-44(s0)
    80000a68:	00279793          	sll	a5,a5,0x2
    80000a6c:	fd843703          	ld	a4,-40(s0)
    80000a70:	00f704b3          	add	s1,a4,a5
    80000a74:	00068593          	mv	a1,a3
    80000a78:	fd843503          	ld	a0,-40(s0)
    80000a7c:	f8dff0ef          	jal	80000a08 <findParent>
    80000a80:	00050793          	mv	a5,a0
    80000a84:	00f4a023          	sw	a5,0(s1)
    80000a88:	0004a783          	lw	a5,0(s1)
    80000a8c:	00078513          	mv	a0,a5
    80000a90:	02813083          	ld	ra,40(sp)
    80000a94:	02013403          	ld	s0,32(sp)
    80000a98:	01813483          	ld	s1,24(sp)
    80000a9c:	03010113          	add	sp,sp,48
    80000aa0:	00008067          	ret

0000000080000aa4 <unionSet>:
    80000aa4:	fd010113          	add	sp,sp,-48
    80000aa8:	02113423          	sd	ra,40(sp)
    80000aac:	02813023          	sd	s0,32(sp)
    80000ab0:	03010413          	add	s0,sp,48
    80000ab4:	00050793          	mv	a5,a0
    80000ab8:	fec43023          	sd	a2,-32(s0)
    80000abc:	fcd43c23          	sd	a3,-40(s0)
    80000ac0:	fef42623          	sw	a5,-20(s0)
    80000ac4:	00058793          	mv	a5,a1
    80000ac8:	fef42423          	sw	a5,-24(s0)
    80000acc:	00070793          	mv	a5,a4
    80000ad0:	fcf42a23          	sw	a5,-44(s0)
    80000ad4:	fec42783          	lw	a5,-20(s0)
    80000ad8:	00078593          	mv	a1,a5
    80000adc:	fe043503          	ld	a0,-32(s0)
    80000ae0:	f29ff0ef          	jal	80000a08 <findParent>
    80000ae4:	00050793          	mv	a5,a0
    80000ae8:	fef42623          	sw	a5,-20(s0)
    80000aec:	fe842783          	lw	a5,-24(s0)
    80000af0:	00078593          	mv	a1,a5
    80000af4:	fe043503          	ld	a0,-32(s0)
    80000af8:	f11ff0ef          	jal	80000a08 <findParent>
    80000afc:	00050793          	mv	a5,a0
    80000b00:	fef42423          	sw	a5,-24(s0)
    80000b04:	fec42783          	lw	a5,-20(s0)
    80000b08:	00279793          	sll	a5,a5,0x2
    80000b0c:	fd843703          	ld	a4,-40(s0)
    80000b10:	00f707b3          	add	a5,a4,a5
    80000b14:	0007a683          	lw	a3,0(a5)
    80000b18:	fe842783          	lw	a5,-24(s0)
    80000b1c:	00279793          	sll	a5,a5,0x2
    80000b20:	fd843703          	ld	a4,-40(s0)
    80000b24:	00f707b3          	add	a5,a4,a5
    80000b28:	0007a783          	lw	a5,0(a5)
    80000b2c:	00068713          	mv	a4,a3
    80000b30:	02f75063          	bge	a4,a5,80000b50 <unionSet+0xac>
    80000b34:	fec42783          	lw	a5,-20(s0)
    80000b38:	00279793          	sll	a5,a5,0x2
    80000b3c:	fe043703          	ld	a4,-32(s0)
    80000b40:	00f707b3          	add	a5,a4,a5
    80000b44:	fe842703          	lw	a4,-24(s0)
    80000b48:	00e7a023          	sw	a4,0(a5)
    80000b4c:	0880006f          	j	80000bd4 <unionSet+0x130>
    80000b50:	fec42783          	lw	a5,-20(s0)
    80000b54:	00279793          	sll	a5,a5,0x2
    80000b58:	fd843703          	ld	a4,-40(s0)
    80000b5c:	00f707b3          	add	a5,a4,a5
    80000b60:	0007a683          	lw	a3,0(a5)
    80000b64:	fe842783          	lw	a5,-24(s0)
    80000b68:	00279793          	sll	a5,a5,0x2
    80000b6c:	fd843703          	ld	a4,-40(s0)
    80000b70:	00f707b3          	add	a5,a4,a5
    80000b74:	0007a783          	lw	a5,0(a5)
    80000b78:	00068713          	mv	a4,a3
    80000b7c:	02e7d063          	bge	a5,a4,80000b9c <unionSet+0xf8>
    80000b80:	fe842783          	lw	a5,-24(s0)
    80000b84:	00279793          	sll	a5,a5,0x2
    80000b88:	fe043703          	ld	a4,-32(s0)
    80000b8c:	00f707b3          	add	a5,a4,a5
    80000b90:	fec42703          	lw	a4,-20(s0)
    80000b94:	00e7a023          	sw	a4,0(a5)
    80000b98:	03c0006f          	j	80000bd4 <unionSet+0x130>
    80000b9c:	fe842783          	lw	a5,-24(s0)
    80000ba0:	00279793          	sll	a5,a5,0x2
    80000ba4:	fe043703          	ld	a4,-32(s0)
    80000ba8:	00f707b3          	add	a5,a4,a5
    80000bac:	fec42703          	lw	a4,-20(s0)
    80000bb0:	00e7a023          	sw	a4,0(a5)
    80000bb4:	fec42783          	lw	a5,-20(s0)
    80000bb8:	00279793          	sll	a5,a5,0x2
    80000bbc:	fd843703          	ld	a4,-40(s0)
    80000bc0:	00f707b3          	add	a5,a4,a5
    80000bc4:	0007a703          	lw	a4,0(a5)
    80000bc8:	0017071b          	addw	a4,a4,1
    80000bcc:	0007071b          	sext.w	a4,a4
    80000bd0:	00e7a023          	sw	a4,0(a5)
    80000bd4:	00000013          	nop
    80000bd8:	02813083          	ld	ra,40(sp)
    80000bdc:	02013403          	ld	s0,32(sp)
    80000be0:	03010113          	add	sp,sp,48
    80000be4:	00008067          	ret

0000000080000be8 <kruskalAlgo>:
    80000be8:	f1010113          	add	sp,sp,-240
    80000bec:	0e113423          	sd	ra,232(sp)
    80000bf0:	0e813023          	sd	s0,224(sp)
    80000bf4:	0c913c23          	sd	s1,216(sp)
    80000bf8:	0d213823          	sd	s2,208(sp)
    80000bfc:	0d313423          	sd	s3,200(sp)
    80000c00:	0d413023          	sd	s4,192(sp)
    80000c04:	0b513c23          	sd	s5,184(sp)
    80000c08:	0b613823          	sd	s6,176(sp)
    80000c0c:	0b713423          	sd	s7,168(sp)
    80000c10:	0b813023          	sd	s8,160(sp)
    80000c14:	09913c23          	sd	s9,152(sp)
    80000c18:	09a13823          	sd	s10,144(sp)
    80000c1c:	09b13423          	sd	s11,136(sp)
    80000c20:	0f010413          	add	s0,sp,240
    80000c24:	00050793          	mv	a5,a0
    80000c28:	f4b43023          	sd	a1,-192(s0)
    80000c2c:	f4f42623          	sw	a5,-180(s0)
    80000c30:	00010793          	mv	a5,sp
    80000c34:	00078493          	mv	s1,a5
    80000c38:	f4c42783          	lw	a5,-180(s0)
    80000c3c:	00000697          	auipc	a3,0x0
    80000c40:	cf868693          	add	a3,a3,-776 # 80000934 <comparator>
    80000c44:	00c00613          	li	a2,12
    80000c48:	00078593          	mv	a1,a5
    80000c4c:	f4043503          	ld	a0,-192(s0)
    80000c50:	351000ef          	jal	800017a0 <qsort>
    80000c54:	f4c42783          	lw	a5,-180(s0)
    80000c58:	00078713          	mv	a4,a5
    80000c5c:	fff70713          	add	a4,a4,-1
    80000c60:	f8e43023          	sd	a4,-128(s0)
    80000c64:	00078713          	mv	a4,a5
    80000c68:	f2e43823          	sd	a4,-208(s0)
    80000c6c:	f2043c23          	sd	zero,-200(s0)
    80000c70:	f3043703          	ld	a4,-208(s0)
    80000c74:	03b75713          	srl	a4,a4,0x3b
    80000c78:	f3843683          	ld	a3,-200(s0)
    80000c7c:	00569c93          	sll	s9,a3,0x5
    80000c80:	01976cb3          	or	s9,a4,s9
    80000c84:	f3043703          	ld	a4,-208(s0)
    80000c88:	00571c13          	sll	s8,a4,0x5
    80000c8c:	00078713          	mv	a4,a5
    80000c90:	f2e43023          	sd	a4,-224(s0)
    80000c94:	f2043423          	sd	zero,-216(s0)
    80000c98:	f2043703          	ld	a4,-224(s0)
    80000c9c:	03b75713          	srl	a4,a4,0x3b
    80000ca0:	f2843683          	ld	a3,-216(s0)
    80000ca4:	00569b93          	sll	s7,a3,0x5
    80000ca8:	01776bb3          	or	s7,a4,s7
    80000cac:	f2043703          	ld	a4,-224(s0)
    80000cb0:	00571b13          	sll	s6,a4,0x5
    80000cb4:	00279793          	sll	a5,a5,0x2
    80000cb8:	00f78793          	add	a5,a5,15
    80000cbc:	0047d793          	srl	a5,a5,0x4
    80000cc0:	00479793          	sll	a5,a5,0x4
    80000cc4:	40f10133          	sub	sp,sp,a5
    80000cc8:	00010793          	mv	a5,sp
    80000ccc:	00378793          	add	a5,a5,3
    80000cd0:	0027d793          	srl	a5,a5,0x2
    80000cd4:	00279793          	sll	a5,a5,0x2
    80000cd8:	f6f43c23          	sd	a5,-136(s0)
    80000cdc:	f4c42783          	lw	a5,-180(s0)
    80000ce0:	00078713          	mv	a4,a5
    80000ce4:	fff70713          	add	a4,a4,-1
    80000ce8:	f6e43823          	sd	a4,-144(s0)
    80000cec:	00078713          	mv	a4,a5
    80000cf0:	f0e43823          	sd	a4,-240(s0)
    80000cf4:	f0043c23          	sd	zero,-232(s0)
    80000cf8:	f1043703          	ld	a4,-240(s0)
    80000cfc:	03b75713          	srl	a4,a4,0x3b
    80000d00:	f1843683          	ld	a3,-232(s0)
    80000d04:	00569a93          	sll	s5,a3,0x5
    80000d08:	01576ab3          	or	s5,a4,s5
    80000d0c:	f1043703          	ld	a4,-240(s0)
    80000d10:	00571a13          	sll	s4,a4,0x5
    80000d14:	00078713          	mv	a4,a5
    80000d18:	00070d13          	mv	s10,a4
    80000d1c:	00000d93          	li	s11,0
    80000d20:	03bd5713          	srl	a4,s10,0x3b
    80000d24:	005d9993          	sll	s3,s11,0x5
    80000d28:	013769b3          	or	s3,a4,s3
    80000d2c:	005d1913          	sll	s2,s10,0x5
    80000d30:	00279793          	sll	a5,a5,0x2
    80000d34:	00f78793          	add	a5,a5,15
    80000d38:	0047d793          	srl	a5,a5,0x4
    80000d3c:	00479793          	sll	a5,a5,0x4
    80000d40:	40f10133          	sub	sp,sp,a5
    80000d44:	00010793          	mv	a5,sp
    80000d48:	00378793          	add	a5,a5,3
    80000d4c:	0027d793          	srl	a5,a5,0x2
    80000d50:	00279793          	sll	a5,a5,0x2
    80000d54:	f6f43423          	sd	a5,-152(s0)
    80000d58:	f4c42783          	lw	a5,-180(s0)
    80000d5c:	00078613          	mv	a2,a5
    80000d60:	f6843583          	ld	a1,-152(s0)
    80000d64:	f7843503          	ld	a0,-136(s0)
    80000d68:	c19ff0ef          	jal	80000980 <makeSet>
    80000d6c:	f8042623          	sw	zero,-116(s0)
    80000d70:	f8042423          	sw	zero,-120(s0)
    80000d74:	0f00006f          	j	80000e64 <kruskalAlgo+0x27c>
    80000d78:	f8842703          	lw	a4,-120(s0)
    80000d7c:	00070793          	mv	a5,a4
    80000d80:	00179793          	sll	a5,a5,0x1
    80000d84:	00e787b3          	add	a5,a5,a4
    80000d88:	00279793          	sll	a5,a5,0x2
    80000d8c:	00078713          	mv	a4,a5
    80000d90:	f4043783          	ld	a5,-192(s0)
    80000d94:	00e787b3          	add	a5,a5,a4
    80000d98:	0007a783          	lw	a5,0(a5)
    80000d9c:	00078593          	mv	a1,a5
    80000da0:	f7843503          	ld	a0,-136(s0)
    80000da4:	c65ff0ef          	jal	80000a08 <findParent>
    80000da8:	00050793          	mv	a5,a0
    80000dac:	f6f42223          	sw	a5,-156(s0)
    80000db0:	f8842703          	lw	a4,-120(s0)
    80000db4:	00070793          	mv	a5,a4
    80000db8:	00179793          	sll	a5,a5,0x1
    80000dbc:	00e787b3          	add	a5,a5,a4
    80000dc0:	00279793          	sll	a5,a5,0x2
    80000dc4:	00078713          	mv	a4,a5
    80000dc8:	f4043783          	ld	a5,-192(s0)
    80000dcc:	00e787b3          	add	a5,a5,a4
    80000dd0:	0047a783          	lw	a5,4(a5)
    80000dd4:	00078593          	mv	a1,a5
    80000dd8:	f7843503          	ld	a0,-136(s0)
    80000ddc:	c2dff0ef          	jal	80000a08 <findParent>
    80000de0:	00050793          	mv	a5,a0
    80000de4:	f6f42023          	sw	a5,-160(s0)
    80000de8:	f8842703          	lw	a4,-120(s0)
    80000dec:	00070793          	mv	a5,a4
    80000df0:	00179793          	sll	a5,a5,0x1
    80000df4:	00e787b3          	add	a5,a5,a4
    80000df8:	00279793          	sll	a5,a5,0x2
    80000dfc:	00078713          	mv	a4,a5
    80000e00:	f4043783          	ld	a5,-192(s0)
    80000e04:	00e787b3          	add	a5,a5,a4
    80000e08:	0087a783          	lw	a5,8(a5)
    80000e0c:	f4f42e23          	sw	a5,-164(s0)
    80000e10:	f6442783          	lw	a5,-156(s0)
    80000e14:	00078713          	mv	a4,a5
    80000e18:	f6042783          	lw	a5,-160(s0)
    80000e1c:	0007071b          	sext.w	a4,a4
    80000e20:	0007879b          	sext.w	a5,a5
    80000e24:	02f70a63          	beq	a4,a5,80000e58 <kruskalAlgo+0x270>
    80000e28:	f4c42703          	lw	a4,-180(s0)
    80000e2c:	f6042583          	lw	a1,-160(s0)
    80000e30:	f6442783          	lw	a5,-156(s0)
    80000e34:	f6843683          	ld	a3,-152(s0)
    80000e38:	f7843603          	ld	a2,-136(s0)
    80000e3c:	00078513          	mv	a0,a5
    80000e40:	c65ff0ef          	jal	80000aa4 <unionSet>
    80000e44:	f8c42783          	lw	a5,-116(s0)
    80000e48:	00078713          	mv	a4,a5
    80000e4c:	f5c42783          	lw	a5,-164(s0)
    80000e50:	00f707bb          	addw	a5,a4,a5
    80000e54:	f8f42623          	sw	a5,-116(s0)
    80000e58:	f8842783          	lw	a5,-120(s0)
    80000e5c:	0017879b          	addw	a5,a5,1
    80000e60:	f8f42423          	sw	a5,-120(s0)
    80000e64:	f8842783          	lw	a5,-120(s0)
    80000e68:	00078713          	mv	a4,a5
    80000e6c:	f4c42783          	lw	a5,-180(s0)
    80000e70:	0007071b          	sext.w	a4,a4
    80000e74:	0007879b          	sext.w	a5,a5
    80000e78:	f0f740e3          	blt	a4,a5,80000d78 <kruskalAlgo+0x190>
    80000e7c:	f8c42783          	lw	a5,-116(s0)
    80000e80:	00048113          	mv	sp,s1
    80000e84:	00078513          	mv	a0,a5
    80000e88:	f1040113          	add	sp,s0,-240
    80000e8c:	0e813083          	ld	ra,232(sp)
    80000e90:	0e013403          	ld	s0,224(sp)
    80000e94:	0d813483          	ld	s1,216(sp)
    80000e98:	0d013903          	ld	s2,208(sp)
    80000e9c:	0c813983          	ld	s3,200(sp)
    80000ea0:	0c013a03          	ld	s4,192(sp)
    80000ea4:	0b813a83          	ld	s5,184(sp)
    80000ea8:	0b013b03          	ld	s6,176(sp)
    80000eac:	0a813b83          	ld	s7,168(sp)
    80000eb0:	0a013c03          	ld	s8,160(sp)
    80000eb4:	09813c83          	ld	s9,152(sp)
    80000eb8:	09013d03          	ld	s10,144(sp)
    80000ebc:	08813d83          	ld	s11,136(sp)
    80000ec0:	0f010113          	add	sp,sp,240
    80000ec4:	00008067          	ret

0000000080000ec8 <kruskalAlgo_simple_call>:
    80000ec8:	fb010113          	add	sp,sp,-80
    80000ecc:	04113423          	sd	ra,72(sp)
    80000ed0:	04813023          	sd	s0,64(sp)
    80000ed4:	05010413          	add	s0,sp,80
    80000ed8:	00001797          	auipc	a5,0x1
    80000edc:	72078793          	add	a5,a5,1824 # 800025f8 <func_ptr+0x108>
    80000ee0:	0007b883          	ld	a7,0(a5)
    80000ee4:	0087b803          	ld	a6,8(a5)
    80000ee8:	0107b503          	ld	a0,16(a5)
    80000eec:	0187b583          	ld	a1,24(a5)
    80000ef0:	0207b603          	ld	a2,32(a5)
    80000ef4:	0287b683          	ld	a3,40(a5)
    80000ef8:	0307b703          	ld	a4,48(a5)
    80000efc:	fb143823          	sd	a7,-80(s0)
    80000f00:	fb043c23          	sd	a6,-72(s0)
    80000f04:	fca43023          	sd	a0,-64(s0)
    80000f08:	fcb43423          	sd	a1,-56(s0)
    80000f0c:	fcc43823          	sd	a2,-48(s0)
    80000f10:	fcd43c23          	sd	a3,-40(s0)
    80000f14:	fee43023          	sd	a4,-32(s0)
    80000f18:	0387a783          	lw	a5,56(a5)
    80000f1c:	fef42423          	sw	a5,-24(s0)
    80000f20:	fb040793          	add	a5,s0,-80
    80000f24:	00078593          	mv	a1,a5
    80000f28:	00500513          	li	a0,5
    80000f2c:	cbdff0ef          	jal	80000be8 <kruskalAlgo>
    80000f30:	00050793          	mv	a5,a0
    80000f34:	00078513          	mv	a0,a5
    80000f38:	04813083          	ld	ra,72(sp)
    80000f3c:	04013403          	ld	s0,64(sp)
    80000f40:	05010113          	add	sp,sp,80
    80000f44:	00008067          	ret

0000000080000f48 <strlen>:
    80000f48:	fd010113          	add	sp,sp,-48
    80000f4c:	02813423          	sd	s0,40(sp)
    80000f50:	03010413          	add	s0,sp,48
    80000f54:	fca43c23          	sd	a0,-40(s0)
    80000f58:	fe043423          	sd	zero,-24(s0)
    80000f5c:	0100006f          	j	80000f6c <strlen+0x24>
    80000f60:	fe843783          	ld	a5,-24(s0)
    80000f64:	00178793          	add	a5,a5,1
    80000f68:	fef43423          	sd	a5,-24(s0)
    80000f6c:	fd843703          	ld	a4,-40(s0)
    80000f70:	fe843783          	ld	a5,-24(s0)
    80000f74:	00f707b3          	add	a5,a4,a5
    80000f78:	0007c783          	lbu	a5,0(a5)
    80000f7c:	fe0792e3          	bnez	a5,80000f60 <strlen+0x18>
    80000f80:	fe843783          	ld	a5,-24(s0)
    80000f84:	00078513          	mv	a0,a5
    80000f88:	02813403          	ld	s0,40(sp)
    80000f8c:	03010113          	add	sp,sp,48
    80000f90:	00008067          	ret

0000000080000f94 <strcpy>:
    80000f94:	fd010113          	add	sp,sp,-48
    80000f98:	02813423          	sd	s0,40(sp)
    80000f9c:	03010413          	add	s0,sp,48
    80000fa0:	fca43c23          	sd	a0,-40(s0)
    80000fa4:	fcb43823          	sd	a1,-48(s0)
    80000fa8:	fe043423          	sd	zero,-24(s0)
    80000fac:	0300006f          	j	80000fdc <strcpy+0x48>
    80000fb0:	fd043703          	ld	a4,-48(s0)
    80000fb4:	fe843783          	ld	a5,-24(s0)
    80000fb8:	00f70733          	add	a4,a4,a5
    80000fbc:	fd843683          	ld	a3,-40(s0)
    80000fc0:	fe843783          	ld	a5,-24(s0)
    80000fc4:	00f687b3          	add	a5,a3,a5
    80000fc8:	00074703          	lbu	a4,0(a4)
    80000fcc:	00e78023          	sb	a4,0(a5)
    80000fd0:	fe843783          	ld	a5,-24(s0)
    80000fd4:	00178793          	add	a5,a5,1
    80000fd8:	fef43423          	sd	a5,-24(s0)
    80000fdc:	fd043703          	ld	a4,-48(s0)
    80000fe0:	fe843783          	ld	a5,-24(s0)
    80000fe4:	00f707b3          	add	a5,a4,a5
    80000fe8:	0007c783          	lbu	a5,0(a5)
    80000fec:	fc0792e3          	bnez	a5,80000fb0 <strcpy+0x1c>
    80000ff0:	fd843703          	ld	a4,-40(s0)
    80000ff4:	fe843783          	ld	a5,-24(s0)
    80000ff8:	00f707b3          	add	a5,a4,a5
    80000ffc:	00078023          	sb	zero,0(a5)
    80001000:	00000013          	nop
    80001004:	02813403          	ld	s0,40(sp)
    80001008:	03010113          	add	sp,sp,48
    8000100c:	00008067          	ret

0000000080001010 <vsprintf>:
    80001010:	fc010113          	add	sp,sp,-64
    80001014:	02113c23          	sd	ra,56(sp)
    80001018:	02813823          	sd	s0,48(sp)
    8000101c:	04010413          	add	s0,sp,64
    80001020:	fca43c23          	sd	a0,-40(s0)
    80001024:	fcb43823          	sd	a1,-48(s0)
    80001028:	fcc43423          	sd	a2,-56(s0)
    8000102c:	fd843783          	ld	a5,-40(s0)
    80001030:	fef43423          	sd	a5,-24(s0)
    80001034:	1580006f          	j	8000118c <vsprintf+0x17c>
    80001038:	fd043783          	ld	a5,-48(s0)
    8000103c:	0007c783          	lbu	a5,0(a5)
    80001040:	00078713          	mv	a4,a5
    80001044:	02500793          	li	a5,37
    80001048:	02f70063          	beq	a4,a5,80001068 <vsprintf+0x58>
    8000104c:	fe843783          	ld	a5,-24(s0)
    80001050:	00178713          	add	a4,a5,1
    80001054:	fee43423          	sd	a4,-24(s0)
    80001058:	fd043703          	ld	a4,-48(s0)
    8000105c:	00074703          	lbu	a4,0(a4)
    80001060:	00e78023          	sb	a4,0(a5)
    80001064:	11c0006f          	j	80001180 <vsprintf+0x170>
    80001068:	fd043783          	ld	a5,-48(s0)
    8000106c:	00178793          	add	a5,a5,1
    80001070:	fcf43823          	sd	a5,-48(s0)
    80001074:	fd043783          	ld	a5,-48(s0)
    80001078:	0007c783          	lbu	a5,0(a5)
    8000107c:	0007879b          	sext.w	a5,a5
    80001080:	00078693          	mv	a3,a5
    80001084:	07800713          	li	a4,120
    80001088:	08e68a63          	beq	a3,a4,8000111c <vsprintf+0x10c>
    8000108c:	00078693          	mv	a3,a5
    80001090:	07800713          	li	a4,120
    80001094:	0ed74463          	blt	a4,a3,8000117c <vsprintf+0x16c>
    80001098:	00078693          	mv	a3,a5
    8000109c:	07300713          	li	a4,115
    800010a0:	0ae68263          	beq	a3,a4,80001144 <vsprintf+0x134>
    800010a4:	00078693          	mv	a3,a5
    800010a8:	07300713          	li	a4,115
    800010ac:	0cd74863          	blt	a4,a3,8000117c <vsprintf+0x16c>
    800010b0:	00078693          	mv	a3,a5
    800010b4:	06300713          	li	a4,99
    800010b8:	00e68a63          	beq	a3,a4,800010cc <vsprintf+0xbc>
    800010bc:	00078713          	mv	a4,a5
    800010c0:	06400793          	li	a5,100
    800010c4:	02f70863          	beq	a4,a5,800010f4 <vsprintf+0xe4>
    800010c8:	0b40006f          	j	8000117c <vsprintf+0x16c>
    800010cc:	fc843783          	ld	a5,-56(s0)
    800010d0:	00878713          	add	a4,a5,8
    800010d4:	fce43423          	sd	a4,-56(s0)
    800010d8:	0007a683          	lw	a3,0(a5)
    800010dc:	fe843783          	ld	a5,-24(s0)
    800010e0:	00178713          	add	a4,a5,1
    800010e4:	fee43423          	sd	a4,-24(s0)
    800010e8:	0ff6f713          	zext.b	a4,a3
    800010ec:	00e78023          	sb	a4,0(a5)
    800010f0:	0900006f          	j	80001180 <vsprintf+0x170>
    800010f4:	fc843783          	ld	a5,-56(s0)
    800010f8:	00878713          	add	a4,a5,8
    800010fc:	fce43423          	sd	a4,-56(s0)
    80001100:	0007a683          	lw	a3,0(a5)
    80001104:	fe843783          	ld	a5,-24(s0)
    80001108:	00178713          	add	a4,a5,1
    8000110c:	fee43423          	sd	a4,-24(s0)
    80001110:	0ff6f713          	zext.b	a4,a3
    80001114:	00e78023          	sb	a4,0(a5)
    80001118:	0680006f          	j	80001180 <vsprintf+0x170>
    8000111c:	fc843783          	ld	a5,-56(s0)
    80001120:	00878713          	add	a4,a5,8
    80001124:	fce43423          	sd	a4,-56(s0)
    80001128:	0007a683          	lw	a3,0(a5)
    8000112c:	fe843783          	ld	a5,-24(s0)
    80001130:	00178713          	add	a4,a5,1
    80001134:	fee43423          	sd	a4,-24(s0)
    80001138:	0ff6f713          	zext.b	a4,a3
    8000113c:	00e78023          	sb	a4,0(a5)
    80001140:	0400006f          	j	80001180 <vsprintf+0x170>
    80001144:	fc843783          	ld	a5,-56(s0)
    80001148:	00878713          	add	a4,a5,8
    8000114c:	fce43423          	sd	a4,-56(s0)
    80001150:	0007b783          	ld	a5,0(a5)
    80001154:	00078593          	mv	a1,a5
    80001158:	fe843503          	ld	a0,-24(s0)
    8000115c:	e39ff0ef          	jal	80000f94 <strcpy>
    80001160:	fe843503          	ld	a0,-24(s0)
    80001164:	de5ff0ef          	jal	80000f48 <strlen>
    80001168:	00050713          	mv	a4,a0
    8000116c:	fe843783          	ld	a5,-24(s0)
    80001170:	00e787b3          	add	a5,a5,a4
    80001174:	fef43423          	sd	a5,-24(s0)
    80001178:	0080006f          	j	80001180 <vsprintf+0x170>
    8000117c:	00000013          	nop
    80001180:	fd043783          	ld	a5,-48(s0)
    80001184:	00178793          	add	a5,a5,1
    80001188:	fcf43823          	sd	a5,-48(s0)
    8000118c:	fd043783          	ld	a5,-48(s0)
    80001190:	0007c783          	lbu	a5,0(a5)
    80001194:	ea0792e3          	bnez	a5,80001038 <vsprintf+0x28>
    80001198:	fe843783          	ld	a5,-24(s0)
    8000119c:	00078023          	sb	zero,0(a5)
    800011a0:	00000013          	nop
    800011a4:	03813083          	ld	ra,56(sp)
    800011a8:	03013403          	ld	s0,48(sp)
    800011ac:	04010113          	add	sp,sp,64
    800011b0:	00008067          	ret

00000000800011b4 <itoa>:
    800011b4:	f4010113          	add	sp,sp,-192
    800011b8:	0a113c23          	sd	ra,184(sp)
    800011bc:	0a813823          	sd	s0,176(sp)
    800011c0:	0c010413          	add	s0,sp,192
    800011c4:	00050793          	mv	a5,a0
    800011c8:	f4b43023          	sd	a1,-192(s0)
    800011cc:	00060713          	mv	a4,a2
    800011d0:	f4f42623          	sw	a5,-180(s0)
    800011d4:	00070793          	mv	a5,a4
    800011d8:	f4f42423          	sw	a5,-184(s0)
    800011dc:	00001797          	auipc	a5,0x1
    800011e0:	45c78793          	add	a5,a5,1116 # 80002638 <func_ptr+0x148>
    800011e4:	0007b583          	ld	a1,0(a5)
    800011e8:	0087b603          	ld	a2,8(a5)
    800011ec:	0107b683          	ld	a3,16(a5)
    800011f0:	0187b703          	ld	a4,24(a5)
    800011f4:	fab43c23          	sd	a1,-72(s0)
    800011f8:	fcc43023          	sd	a2,-64(s0)
    800011fc:	fcd43423          	sd	a3,-56(s0)
    80001200:	fce43823          	sd	a4,-48(s0)
    80001204:	0207a703          	lw	a4,32(a5)
    80001208:	fce42c23          	sw	a4,-40(s0)
    8000120c:	0247c783          	lbu	a5,36(a5)
    80001210:	fcf40e23          	sb	a5,-36(s0)
    80001214:	fe042423          	sw	zero,-24(s0)
    80001218:	f4842783          	lw	a5,-184(s0)
    8000121c:	0007871b          	sext.w	a4,a5
    80001220:	00a00793          	li	a5,10
    80001224:	04f71263          	bne	a4,a5,80001268 <itoa+0xb4>
    80001228:	f4c42783          	lw	a5,-180(s0)
    8000122c:	0007879b          	sext.w	a5,a5
    80001230:	0207dc63          	bgez	a5,80001268 <itoa+0xb4>
    80001234:	f4c42783          	lw	a5,-180(s0)
    80001238:	40f007bb          	negw	a5,a5
    8000123c:	0007879b          	sext.w	a5,a5
    80001240:	fef42623          	sw	a5,-20(s0)
    80001244:	fe842783          	lw	a5,-24(s0)
    80001248:	0017871b          	addw	a4,a5,1
    8000124c:	fee42423          	sw	a4,-24(s0)
    80001250:	00078713          	mv	a4,a5
    80001254:	f4043783          	ld	a5,-192(s0)
    80001258:	00e787b3          	add	a5,a5,a4
    8000125c:	02d00713          	li	a4,45
    80001260:	00e78023          	sb	a4,0(a5)
    80001264:	00c0006f          	j	80001270 <itoa+0xbc>
    80001268:	f4c42783          	lw	a5,-180(s0)
    8000126c:	fef42623          	sw	a5,-20(s0)
    80001270:	f4842783          	lw	a5,-184(s0)
    80001274:	fec42703          	lw	a4,-20(s0)
    80001278:	02f777bb          	remuw	a5,a4,a5
    8000127c:	0007869b          	sext.w	a3,a5
    80001280:	fe842783          	lw	a5,-24(s0)
    80001284:	0017871b          	addw	a4,a5,1
    80001288:	fee42423          	sw	a4,-24(s0)
    8000128c:	00078713          	mv	a4,a5
    80001290:	f4043783          	ld	a5,-192(s0)
    80001294:	00e787b3          	add	a5,a5,a4
    80001298:	02069713          	sll	a4,a3,0x20
    8000129c:	02075713          	srl	a4,a4,0x20
    800012a0:	ff070713          	add	a4,a4,-16
    800012a4:	00870733          	add	a4,a4,s0
    800012a8:	fc874703          	lbu	a4,-56(a4)
    800012ac:	00e78023          	sb	a4,0(a5)
    800012b0:	f4842783          	lw	a5,-184(s0)
    800012b4:	fec42703          	lw	a4,-20(s0)
    800012b8:	02f757bb          	divuw	a5,a4,a5
    800012bc:	fef42623          	sw	a5,-20(s0)
    800012c0:	fec42783          	lw	a5,-20(s0)
    800012c4:	0007879b          	sext.w	a5,a5
    800012c8:	fa0794e3          	bnez	a5,80001270 <itoa+0xbc>
    800012cc:	fe842783          	lw	a5,-24(s0)
    800012d0:	f4043703          	ld	a4,-192(s0)
    800012d4:	00f707b3          	add	a5,a4,a5
    800012d8:	00078023          	sb	zero,0(a5)
    800012dc:	f4043783          	ld	a5,-192(s0)
    800012e0:	0007c783          	lbu	a5,0(a5)
    800012e4:	00078713          	mv	a4,a5
    800012e8:	02d00793          	li	a5,45
    800012ec:	00f71863          	bne	a4,a5,800012fc <itoa+0x148>
    800012f0:	00100793          	li	a5,1
    800012f4:	fef42223          	sw	a5,-28(s0)
    800012f8:	0080006f          	j	80001300 <itoa+0x14c>
    800012fc:	fe042223          	sw	zero,-28(s0)
    80001300:	f4043823          	sd	zero,-176(s0)
    80001304:	f4043c23          	sd	zero,-168(s0)
    80001308:	f6043023          	sd	zero,-160(s0)
    8000130c:	f6043423          	sd	zero,-152(s0)
    80001310:	f6043823          	sd	zero,-144(s0)
    80001314:	f6043c23          	sd	zero,-136(s0)
    80001318:	f8043023          	sd	zero,-128(s0)
    8000131c:	f8043423          	sd	zero,-120(s0)
    80001320:	f8043823          	sd	zero,-112(s0)
    80001324:	f8043c23          	sd	zero,-104(s0)
    80001328:	fa043023          	sd	zero,-96(s0)
    8000132c:	fa043423          	sd	zero,-88(s0)
    80001330:	fa042823          	sw	zero,-80(s0)
    80001334:	f5040793          	add	a5,s0,-176
    80001338:	f4043583          	ld	a1,-192(s0)
    8000133c:	00078513          	mv	a0,a5
    80001340:	c55ff0ef          	jal	80000f94 <strcpy>
    80001344:	fe442783          	lw	a5,-28(s0)
    80001348:	fef42023          	sw	a5,-32(s0)
    8000134c:	0480006f          	j	80001394 <itoa+0x1e0>
    80001350:	fe842783          	lw	a5,-24(s0)
    80001354:	00078713          	mv	a4,a5
    80001358:	fe042783          	lw	a5,-32(s0)
    8000135c:	40f707bb          	subw	a5,a4,a5
    80001360:	0007879b          	sext.w	a5,a5
    80001364:	fff7879b          	addw	a5,a5,-1
    80001368:	0007871b          	sext.w	a4,a5
    8000136c:	fe042783          	lw	a5,-32(s0)
    80001370:	f4043683          	ld	a3,-192(s0)
    80001374:	00f687b3          	add	a5,a3,a5
    80001378:	ff070713          	add	a4,a4,-16
    8000137c:	00870733          	add	a4,a4,s0
    80001380:	f6074703          	lbu	a4,-160(a4)
    80001384:	00e78023          	sb	a4,0(a5)
    80001388:	fe042783          	lw	a5,-32(s0)
    8000138c:	0017879b          	addw	a5,a5,1
    80001390:	fef42023          	sw	a5,-32(s0)
    80001394:	fe042783          	lw	a5,-32(s0)
    80001398:	00078713          	mv	a4,a5
    8000139c:	fe842783          	lw	a5,-24(s0)
    800013a0:	0007071b          	sext.w	a4,a4
    800013a4:	0007879b          	sext.w	a5,a5
    800013a8:	faf744e3          	blt	a4,a5,80001350 <itoa+0x19c>
    800013ac:	00000013          	nop
    800013b0:	00000013          	nop
    800013b4:	0b813083          	ld	ra,184(sp)
    800013b8:	0b013403          	ld	s0,176(sp)
    800013bc:	0c010113          	add	sp,sp,192
    800013c0:	00008067          	ret

00000000800013c4 <atoi>:
    800013c4:	fd010113          	add	sp,sp,-48
    800013c8:	02813423          	sd	s0,40(sp)
    800013cc:	03010413          	add	s0,sp,48
    800013d0:	fca43c23          	sd	a0,-40(s0)
    800013d4:	fe042623          	sw	zero,-20(s0)
    800013d8:	00100793          	li	a5,1
    800013dc:	fef42423          	sw	a5,-24(s0)
    800013e0:	fd843783          	ld	a5,-40(s0)
    800013e4:	0007c783          	lbu	a5,0(a5)
    800013e8:	00078713          	mv	a4,a5
    800013ec:	02d00793          	li	a5,45
    800013f0:	06f71063          	bne	a4,a5,80001450 <atoi+0x8c>
    800013f4:	fff00793          	li	a5,-1
    800013f8:	fef42423          	sw	a5,-24(s0)
    800013fc:	fd843783          	ld	a5,-40(s0)
    80001400:	00178793          	add	a5,a5,1
    80001404:	fcf43c23          	sd	a5,-40(s0)
    80001408:	0480006f          	j	80001450 <atoi+0x8c>
    8000140c:	fec42783          	lw	a5,-20(s0)
    80001410:	00078713          	mv	a4,a5
    80001414:	00070793          	mv	a5,a4
    80001418:	0027979b          	sllw	a5,a5,0x2
    8000141c:	00e787bb          	addw	a5,a5,a4
    80001420:	0017979b          	sllw	a5,a5,0x1
    80001424:	0007871b          	sext.w	a4,a5
    80001428:	fd843783          	ld	a5,-40(s0)
    8000142c:	0007c783          	lbu	a5,0(a5)
    80001430:	0007879b          	sext.w	a5,a5
    80001434:	00f707bb          	addw	a5,a4,a5
    80001438:	0007879b          	sext.w	a5,a5
    8000143c:	fd07879b          	addw	a5,a5,-48
    80001440:	fef42623          	sw	a5,-20(s0)
    80001444:	fd843783          	ld	a5,-40(s0)
    80001448:	00178793          	add	a5,a5,1
    8000144c:	fcf43c23          	sd	a5,-40(s0)
    80001450:	fd843783          	ld	a5,-40(s0)
    80001454:	0007c783          	lbu	a5,0(a5)
    80001458:	fa079ae3          	bnez	a5,8000140c <atoi+0x48>
    8000145c:	fec42783          	lw	a5,-20(s0)
    80001460:	00078713          	mv	a4,a5
    80001464:	fe842783          	lw	a5,-24(s0)
    80001468:	02f707bb          	mulw	a5,a4,a5
    8000146c:	0007879b          	sext.w	a5,a5
    80001470:	00078513          	mv	a0,a5
    80001474:	02813403          	ld	s0,40(sp)
    80001478:	03010113          	add	sp,sp,48
    8000147c:	00008067          	ret

0000000080001480 <atoi_radix>:
    80001480:	fd010113          	add	sp,sp,-48
    80001484:	02813423          	sd	s0,40(sp)
    80001488:	03010413          	add	s0,sp,48
    8000148c:	fca43c23          	sd	a0,-40(s0)
    80001490:	00058793          	mv	a5,a1
    80001494:	fcf42a23          	sw	a5,-44(s0)
    80001498:	fe042623          	sw	zero,-20(s0)
    8000149c:	00100793          	li	a5,1
    800014a0:	fef42423          	sw	a5,-24(s0)
    800014a4:	fd843783          	ld	a5,-40(s0)
    800014a8:	0007c783          	lbu	a5,0(a5)
    800014ac:	00078713          	mv	a4,a5
    800014b0:	02d00793          	li	a5,45
    800014b4:	04f71c63          	bne	a4,a5,8000150c <atoi_radix+0x8c>
    800014b8:	fff00793          	li	a5,-1
    800014bc:	fef42423          	sw	a5,-24(s0)
    800014c0:	fd843783          	ld	a5,-40(s0)
    800014c4:	00178793          	add	a5,a5,1
    800014c8:	fcf43c23          	sd	a5,-40(s0)
    800014cc:	0400006f          	j	8000150c <atoi_radix+0x8c>
    800014d0:	fec42783          	lw	a5,-20(s0)
    800014d4:	00078713          	mv	a4,a5
    800014d8:	fd442783          	lw	a5,-44(s0)
    800014dc:	02f707bb          	mulw	a5,a4,a5
    800014e0:	0007871b          	sext.w	a4,a5
    800014e4:	fd843783          	ld	a5,-40(s0)
    800014e8:	0007c783          	lbu	a5,0(a5)
    800014ec:	0007879b          	sext.w	a5,a5
    800014f0:	00f707bb          	addw	a5,a4,a5
    800014f4:	0007879b          	sext.w	a5,a5
    800014f8:	fd07879b          	addw	a5,a5,-48
    800014fc:	fef42623          	sw	a5,-20(s0)
    80001500:	fd843783          	ld	a5,-40(s0)
    80001504:	00178793          	add	a5,a5,1
    80001508:	fcf43c23          	sd	a5,-40(s0)
    8000150c:	fd843783          	ld	a5,-40(s0)
    80001510:	0007c783          	lbu	a5,0(a5)
    80001514:	fa079ee3          	bnez	a5,800014d0 <atoi_radix+0x50>
    80001518:	fec42783          	lw	a5,-20(s0)
    8000151c:	00078713          	mv	a4,a5
    80001520:	fe842783          	lw	a5,-24(s0)
    80001524:	02f707bb          	mulw	a5,a4,a5
    80001528:	0007879b          	sext.w	a5,a5
    8000152c:	00078513          	mv	a0,a5
    80001530:	02813403          	ld	s0,40(sp)
    80001534:	03010113          	add	sp,sp,48
    80001538:	00008067          	ret

000000008000153c <strcmp>:
    8000153c:	fe010113          	add	sp,sp,-32
    80001540:	00813c23          	sd	s0,24(sp)
    80001544:	02010413          	add	s0,sp,32
    80001548:	fea43423          	sd	a0,-24(s0)
    8000154c:	feb43023          	sd	a1,-32(s0)
    80001550:	0540006f          	j	800015a4 <strcmp+0x68>
    80001554:	fe843783          	ld	a5,-24(s0)
    80001558:	0007c703          	lbu	a4,0(a5)
    8000155c:	fe043783          	ld	a5,-32(s0)
    80001560:	0007c783          	lbu	a5,0(a5)
    80001564:	02f70463          	beq	a4,a5,8000158c <strcmp+0x50>
    80001568:	fe843783          	ld	a5,-24(s0)
    8000156c:	0007c783          	lbu	a5,0(a5)
    80001570:	0007871b          	sext.w	a4,a5
    80001574:	fe043783          	ld	a5,-32(s0)
    80001578:	0007c783          	lbu	a5,0(a5)
    8000157c:	0007879b          	sext.w	a5,a5
    80001580:	40f707bb          	subw	a5,a4,a5
    80001584:	0007879b          	sext.w	a5,a5
    80001588:	0600006f          	j	800015e8 <strcmp+0xac>
    8000158c:	fe843783          	ld	a5,-24(s0)
    80001590:	00178793          	add	a5,a5,1
    80001594:	fef43423          	sd	a5,-24(s0)
    80001598:	fe043783          	ld	a5,-32(s0)
    8000159c:	00178793          	add	a5,a5,1
    800015a0:	fef43023          	sd	a5,-32(s0)
    800015a4:	fe843783          	ld	a5,-24(s0)
    800015a8:	0007c783          	lbu	a5,0(a5)
    800015ac:	00078863          	beqz	a5,800015bc <strcmp+0x80>
    800015b0:	fe043783          	ld	a5,-32(s0)
    800015b4:	0007c783          	lbu	a5,0(a5)
    800015b8:	f8079ee3          	bnez	a5,80001554 <strcmp+0x18>
    800015bc:	fe843783          	ld	a5,-24(s0)
    800015c0:	0007c783          	lbu	a5,0(a5)
    800015c4:	00078663          	beqz	a5,800015d0 <strcmp+0x94>
    800015c8:	00100793          	li	a5,1
    800015cc:	01c0006f          	j	800015e8 <strcmp+0xac>
    800015d0:	fe043783          	ld	a5,-32(s0)
    800015d4:	0007c783          	lbu	a5,0(a5)
    800015d8:	00078663          	beqz	a5,800015e4 <strcmp+0xa8>
    800015dc:	fff00793          	li	a5,-1
    800015e0:	0080006f          	j	800015e8 <strcmp+0xac>
    800015e4:	00000793          	li	a5,0
    800015e8:	00078513          	mv	a0,a5
    800015ec:	01813403          	ld	s0,24(sp)
    800015f0:	02010113          	add	sp,sp,32
    800015f4:	00008067          	ret

00000000800015f8 <memcpy>:
    800015f8:	fc010113          	add	sp,sp,-64
    800015fc:	02813c23          	sd	s0,56(sp)
    80001600:	04010413          	add	s0,sp,64
    80001604:	fca43c23          	sd	a0,-40(s0)
    80001608:	fcb43823          	sd	a1,-48(s0)
    8000160c:	00060793          	mv	a5,a2
    80001610:	fcf42623          	sw	a5,-52(s0)
    80001614:	fe042623          	sw	zero,-20(s0)
    80001618:	0300006f          	j	80001648 <memcpy+0x50>
    8000161c:	fec42783          	lw	a5,-20(s0)
    80001620:	fd043703          	ld	a4,-48(s0)
    80001624:	00f70733          	add	a4,a4,a5
    80001628:	fec42783          	lw	a5,-20(s0)
    8000162c:	fd843683          	ld	a3,-40(s0)
    80001630:	00f687b3          	add	a5,a3,a5
    80001634:	00074703          	lbu	a4,0(a4)
    80001638:	00e78023          	sb	a4,0(a5)
    8000163c:	fec42783          	lw	a5,-20(s0)
    80001640:	0017879b          	addw	a5,a5,1
    80001644:	fef42623          	sw	a5,-20(s0)
    80001648:	fec42783          	lw	a5,-20(s0)
    8000164c:	00078713          	mv	a4,a5
    80001650:	fcc42783          	lw	a5,-52(s0)
    80001654:	0007071b          	sext.w	a4,a4
    80001658:	0007879b          	sext.w	a5,a5
    8000165c:	fcf740e3          	blt	a4,a5,8000161c <memcpy+0x24>
    80001660:	00000013          	nop
    80001664:	00000013          	nop
    80001668:	03813403          	ld	s0,56(sp)
    8000166c:	04010113          	add	sp,sp,64
    80001670:	00008067          	ret

0000000080001674 <memset>:
    80001674:	fd010113          	add	sp,sp,-48
    80001678:	02813423          	sd	s0,40(sp)
    8000167c:	03010413          	add	s0,sp,48
    80001680:	fca43c23          	sd	a0,-40(s0)
    80001684:	00058793          	mv	a5,a1
    80001688:	00060713          	mv	a4,a2
    8000168c:	fcf40ba3          	sb	a5,-41(s0)
    80001690:	00070793          	mv	a5,a4
    80001694:	fcf42823          	sw	a5,-48(s0)
    80001698:	fe042623          	sw	zero,-20(s0)
    8000169c:	0240006f          	j	800016c0 <memset+0x4c>
    800016a0:	fec42783          	lw	a5,-20(s0)
    800016a4:	fd843703          	ld	a4,-40(s0)
    800016a8:	00f707b3          	add	a5,a4,a5
    800016ac:	fd744703          	lbu	a4,-41(s0)
    800016b0:	00e78023          	sb	a4,0(a5)
    800016b4:	fec42783          	lw	a5,-20(s0)
    800016b8:	0017879b          	addw	a5,a5,1
    800016bc:	fef42623          	sw	a5,-20(s0)
    800016c0:	fec42783          	lw	a5,-20(s0)
    800016c4:	00078713          	mv	a4,a5
    800016c8:	fd042783          	lw	a5,-48(s0)
    800016cc:	0007071b          	sext.w	a4,a4
    800016d0:	0007879b          	sext.w	a5,a5
    800016d4:	fcf746e3          	blt	a4,a5,800016a0 <memset+0x2c>
    800016d8:	00000013          	nop
    800016dc:	00000013          	nop
    800016e0:	02813403          	ld	s0,40(sp)
    800016e4:	03010113          	add	sp,sp,48
    800016e8:	00008067          	ret

00000000800016ec <swap>:
    800016ec:	fb010113          	add	sp,sp,-80
    800016f0:	04813423          	sd	s0,72(sp)
    800016f4:	05010413          	add	s0,sp,80
    800016f8:	fca43423          	sd	a0,-56(s0)
    800016fc:	fcb43023          	sd	a1,-64(s0)
    80001700:	00060793          	mv	a5,a2
    80001704:	faf42e23          	sw	a5,-68(s0)
    80001708:	fc843783          	ld	a5,-56(s0)
    8000170c:	fef43023          	sd	a5,-32(s0)
    80001710:	fc043783          	ld	a5,-64(s0)
    80001714:	fcf43c23          	sd	a5,-40(s0)
    80001718:	fe042623          	sw	zero,-20(s0)
    8000171c:	0580006f          	j	80001774 <swap+0x88>
    80001720:	fec42783          	lw	a5,-20(s0)
    80001724:	fe043703          	ld	a4,-32(s0)
    80001728:	00f707b3          	add	a5,a4,a5
    8000172c:	0007c783          	lbu	a5,0(a5)
    80001730:	fcf40ba3          	sb	a5,-41(s0)
    80001734:	fec42783          	lw	a5,-20(s0)
    80001738:	fd843703          	ld	a4,-40(s0)
    8000173c:	00f70733          	add	a4,a4,a5
    80001740:	fec42783          	lw	a5,-20(s0)
    80001744:	fe043683          	ld	a3,-32(s0)
    80001748:	00f687b3          	add	a5,a3,a5
    8000174c:	00074703          	lbu	a4,0(a4)
    80001750:	00e78023          	sb	a4,0(a5)
    80001754:	fec42783          	lw	a5,-20(s0)
    80001758:	fd843703          	ld	a4,-40(s0)
    8000175c:	00f707b3          	add	a5,a4,a5
    80001760:	fd744703          	lbu	a4,-41(s0)
    80001764:	00e78023          	sb	a4,0(a5)
    80001768:	fec42783          	lw	a5,-20(s0)
    8000176c:	0017879b          	addw	a5,a5,1
    80001770:	fef42623          	sw	a5,-20(s0)
    80001774:	fec42783          	lw	a5,-20(s0)
    80001778:	00078713          	mv	a4,a5
    8000177c:	fbc42783          	lw	a5,-68(s0)
    80001780:	0007071b          	sext.w	a4,a4
    80001784:	0007879b          	sext.w	a5,a5
    80001788:	f8f74ce3          	blt	a4,a5,80001720 <swap+0x34>
    8000178c:	00000013          	nop
    80001790:	00000013          	nop
    80001794:	04813403          	ld	s0,72(sp)
    80001798:	05010113          	add	sp,sp,80
    8000179c:	00008067          	ret

00000000800017a0 <qsort>:
    800017a0:	fb010113          	add	sp,sp,-80
    800017a4:	04113423          	sd	ra,72(sp)
    800017a8:	04813023          	sd	s0,64(sp)
    800017ac:	05010413          	add	s0,sp,80
    800017b0:	fca43423          	sd	a0,-56(s0)
    800017b4:	00058793          	mv	a5,a1
    800017b8:	00060713          	mv	a4,a2
    800017bc:	fad43c23          	sd	a3,-72(s0)
    800017c0:	fcf42223          	sw	a5,-60(s0)
    800017c4:	00070793          	mv	a5,a4
    800017c8:	fcf42023          	sw	a5,-64(s0)
    800017cc:	fc843783          	ld	a5,-56(s0)
    800017d0:	fef43023          	sd	a5,-32(s0)
    800017d4:	fe042623          	sw	zero,-20(s0)
    800017d8:	0c00006f          	j	80001898 <qsort+0xf8>
    800017dc:	fe042423          	sw	zero,-24(s0)
    800017e0:	0880006f          	j	80001868 <qsort+0xc8>
    800017e4:	fe842783          	lw	a5,-24(s0)
    800017e8:	00078713          	mv	a4,a5
    800017ec:	fc042783          	lw	a5,-64(s0)
    800017f0:	02f707bb          	mulw	a5,a4,a5
    800017f4:	0007879b          	sext.w	a5,a5
    800017f8:	00078713          	mv	a4,a5
    800017fc:	fe043783          	ld	a5,-32(s0)
    80001800:	00e787b3          	add	a5,a5,a4
    80001804:	fcf43c23          	sd	a5,-40(s0)
    80001808:	fe842783          	lw	a5,-24(s0)
    8000180c:	0017879b          	addw	a5,a5,1
    80001810:	0007879b          	sext.w	a5,a5
    80001814:	fc042703          	lw	a4,-64(s0)
    80001818:	02f707bb          	mulw	a5,a4,a5
    8000181c:	0007879b          	sext.w	a5,a5
    80001820:	00078713          	mv	a4,a5
    80001824:	fe043783          	ld	a5,-32(s0)
    80001828:	00e787b3          	add	a5,a5,a4
    8000182c:	fcf43823          	sd	a5,-48(s0)
    80001830:	fb843783          	ld	a5,-72(s0)
    80001834:	fd043583          	ld	a1,-48(s0)
    80001838:	fd843503          	ld	a0,-40(s0)
    8000183c:	000780e7          	jalr	a5
    80001840:	00050793          	mv	a5,a0
    80001844:	00f05c63          	blez	a5,8000185c <qsort+0xbc>
    80001848:	fc042783          	lw	a5,-64(s0)
    8000184c:	00078613          	mv	a2,a5
    80001850:	fd043583          	ld	a1,-48(s0)
    80001854:	fd843503          	ld	a0,-40(s0)
    80001858:	e95ff0ef          	jal	800016ec <swap>
    8000185c:	fe842783          	lw	a5,-24(s0)
    80001860:	0017879b          	addw	a5,a5,1
    80001864:	fef42423          	sw	a5,-24(s0)
    80001868:	fc442783          	lw	a5,-60(s0)
    8000186c:	fff7879b          	addw	a5,a5,-1
    80001870:	0007879b          	sext.w	a5,a5
    80001874:	fec42703          	lw	a4,-20(s0)
    80001878:	40e787bb          	subw	a5,a5,a4
    8000187c:	0007871b          	sext.w	a4,a5
    80001880:	fe842783          	lw	a5,-24(s0)
    80001884:	0007879b          	sext.w	a5,a5
    80001888:	f4e7cee3          	blt	a5,a4,800017e4 <qsort+0x44>
    8000188c:	fec42783          	lw	a5,-20(s0)
    80001890:	0017879b          	addw	a5,a5,1
    80001894:	fef42623          	sw	a5,-20(s0)
    80001898:	fec42783          	lw	a5,-20(s0)
    8000189c:	00078713          	mv	a4,a5
    800018a0:	fc442783          	lw	a5,-60(s0)
    800018a4:	0007071b          	sext.w	a4,a4
    800018a8:	0007879b          	sext.w	a5,a5
    800018ac:	f2f748e3          	blt	a4,a5,800017dc <qsort+0x3c>
    800018b0:	00000013          	nop
    800018b4:	00000013          	nop
    800018b8:	04813083          	ld	ra,72(sp)
    800018bc:	04013403          	ld	s0,64(sp)
    800018c0:	05010113          	add	sp,sp,80
    800018c4:	00008067          	ret

00000000800018c8 <uart_gpio_data_available>:
    800018c8:	ff010113          	add	sp,sp,-16
    800018cc:	00813423          	sd	s0,8(sp)
    800018d0:	01010413          	add	s0,sp,16
    800018d4:	00001797          	auipc	a5,0x1
    800018d8:	1a478793          	add	a5,a5,420 # 80002a78 <uart_gpio>
    800018dc:	0007b783          	ld	a5,0(a5)
    800018e0:	00878793          	add	a5,a5,8
    800018e4:	0007a783          	lw	a5,0(a5)
    800018e8:	0007879b          	sext.w	a5,a5
    800018ec:	0017f793          	and	a5,a5,1
    800018f0:	0007879b          	sext.w	a5,a5
    800018f4:	00078513          	mv	a0,a5
    800018f8:	00813403          	ld	s0,8(sp)
    800018fc:	01010113          	add	sp,sp,16
    80001900:	00008067          	ret

0000000080001904 <uart_gpio_can_send>:
    80001904:	ff010113          	add	sp,sp,-16
    80001908:	00813423          	sd	s0,8(sp)
    8000190c:	01010413          	add	s0,sp,16
    80001910:	00001797          	auipc	a5,0x1
    80001914:	16878793          	add	a5,a5,360 # 80002a78 <uart_gpio>
    80001918:	0007b783          	ld	a5,0(a5)
    8000191c:	00878793          	add	a5,a5,8
    80001920:	0007a783          	lw	a5,0(a5)
    80001924:	0007879b          	sext.w	a5,a5
    80001928:	0047f793          	and	a5,a5,4
    8000192c:	0007879b          	sext.w	a5,a5
    80001930:	00078513          	mv	a0,a5
    80001934:	00813403          	ld	s0,8(sp)
    80001938:	01010113          	add	sp,sp,16
    8000193c:	00008067          	ret

0000000080001940 <uart_gpio_puts>:
    80001940:	fe010113          	add	sp,sp,-32
    80001944:	00113c23          	sd	ra,24(sp)
    80001948:	00813823          	sd	s0,16(sp)
    8000194c:	02010413          	add	s0,sp,32
    80001950:	fea43423          	sd	a0,-24(s0)
    80001954:	03c0006f          	j	80001990 <uart_gpio_puts+0x50>
    80001958:	00000013          	nop
    8000195c:	fa9ff0ef          	jal	80001904 <uart_gpio_can_send>
    80001960:	00050793          	mv	a5,a0
    80001964:	fe078ce3          	beqz	a5,8000195c <uart_gpio_puts+0x1c>
    80001968:	fe843783          	ld	a5,-24(s0)
    8000196c:	00178713          	add	a4,a5,1
    80001970:	fee43423          	sd	a4,-24(s0)
    80001974:	0007c703          	lbu	a4,0(a5)
    80001978:	00001797          	auipc	a5,0x1
    8000197c:	10078793          	add	a5,a5,256 # 80002a78 <uart_gpio>
    80001980:	0007b783          	ld	a5,0(a5)
    80001984:	00478793          	add	a5,a5,4
    80001988:	0007071b          	sext.w	a4,a4
    8000198c:	00e7a023          	sw	a4,0(a5)
    80001990:	fe843783          	ld	a5,-24(s0)
    80001994:	0007c783          	lbu	a5,0(a5)
    80001998:	fc0790e3          	bnez	a5,80001958 <uart_gpio_puts+0x18>
    8000199c:	00000013          	nop
    800019a0:	f65ff0ef          	jal	80001904 <uart_gpio_can_send>
    800019a4:	00050793          	mv	a5,a0
    800019a8:	fe078ce3          	beqz	a5,800019a0 <uart_gpio_puts+0x60>
    800019ac:	00001797          	auipc	a5,0x1
    800019b0:	0cc78793          	add	a5,a5,204 # 80002a78 <uart_gpio>
    800019b4:	0007b783          	ld	a5,0(a5)
    800019b8:	00478793          	add	a5,a5,4
    800019bc:	00a00713          	li	a4,10
    800019c0:	00e7a023          	sw	a4,0(a5)
    800019c4:	00000013          	nop
    800019c8:	01813083          	ld	ra,24(sp)
    800019cc:	01013403          	ld	s0,16(sp)
    800019d0:	02010113          	add	sp,sp,32
    800019d4:	00008067          	ret

00000000800019d8 <minDistance>:
    800019d8:	fc010113          	add	sp,sp,-64
    800019dc:	02813c23          	sd	s0,56(sp)
    800019e0:	04010413          	add	s0,sp,64
    800019e4:	00050793          	mv	a5,a0
    800019e8:	fcb43823          	sd	a1,-48(s0)
    800019ec:	fcc43423          	sd	a2,-56(s0)
    800019f0:	fcf42e23          	sw	a5,-36(s0)
    800019f4:	800007b7          	lui	a5,0x80000
    800019f8:	fff7c793          	not	a5,a5
    800019fc:	fef42623          	sw	a5,-20(s0)
    80001a00:	fe042223          	sw	zero,-28(s0)
    80001a04:	06c0006f          	j	80001a70 <minDistance+0x98>
    80001a08:	fe442783          	lw	a5,-28(s0)
    80001a0c:	fc843703          	ld	a4,-56(s0)
    80001a10:	00f707b3          	add	a5,a4,a5
    80001a14:	0007c783          	lbu	a5,0(a5) # ffffffff80000000 <_end+0xfffffffefffed570>
    80001a18:	0017c793          	xor	a5,a5,1
    80001a1c:	0ff7f793          	zext.b	a5,a5
    80001a20:	04078263          	beqz	a5,80001a64 <minDistance+0x8c>
    80001a24:	fe442783          	lw	a5,-28(s0)
    80001a28:	00279793          	sll	a5,a5,0x2
    80001a2c:	fd043703          	ld	a4,-48(s0)
    80001a30:	00f707b3          	add	a5,a4,a5
    80001a34:	0007a703          	lw	a4,0(a5)
    80001a38:	fec42783          	lw	a5,-20(s0)
    80001a3c:	0007879b          	sext.w	a5,a5
    80001a40:	02e7c263          	blt	a5,a4,80001a64 <minDistance+0x8c>
    80001a44:	fe442783          	lw	a5,-28(s0)
    80001a48:	00279793          	sll	a5,a5,0x2
    80001a4c:	fd043703          	ld	a4,-48(s0)
    80001a50:	00f707b3          	add	a5,a4,a5
    80001a54:	0007a783          	lw	a5,0(a5)
    80001a58:	fef42623          	sw	a5,-20(s0)
    80001a5c:	fe442783          	lw	a5,-28(s0)
    80001a60:	fef42423          	sw	a5,-24(s0)
    80001a64:	fe442783          	lw	a5,-28(s0)
    80001a68:	0017879b          	addw	a5,a5,1
    80001a6c:	fef42223          	sw	a5,-28(s0)
    80001a70:	fe442783          	lw	a5,-28(s0)
    80001a74:	00078713          	mv	a4,a5
    80001a78:	fdc42783          	lw	a5,-36(s0)
    80001a7c:	0007071b          	sext.w	a4,a4
    80001a80:	0007879b          	sext.w	a5,a5
    80001a84:	f8f742e3          	blt	a4,a5,80001a08 <minDistance+0x30>
    80001a88:	fe842783          	lw	a5,-24(s0)
    80001a8c:	00078513          	mv	a0,a5
    80001a90:	03813403          	ld	s0,56(sp)
    80001a94:	04010113          	add	sp,sp,64
    80001a98:	00008067          	ret

0000000080001a9c <printSolution>:
    80001a9c:	fd010113          	add	sp,sp,-48
    80001aa0:	02813423          	sd	s0,40(sp)
    80001aa4:	03010413          	add	s0,sp,48
    80001aa8:	00050793          	mv	a5,a0
    80001aac:	fcb43823          	sd	a1,-48(s0)
    80001ab0:	fcf42e23          	sw	a5,-36(s0)
    80001ab4:	fe042623          	sw	zero,-20(s0)
    80001ab8:	0100006f          	j	80001ac8 <printSolution+0x2c>
    80001abc:	fec42783          	lw	a5,-20(s0)
    80001ac0:	0017879b          	addw	a5,a5,1
    80001ac4:	fef42623          	sw	a5,-20(s0)
    80001ac8:	fec42783          	lw	a5,-20(s0)
    80001acc:	00078713          	mv	a4,a5
    80001ad0:	fdc42783          	lw	a5,-36(s0)
    80001ad4:	0007071b          	sext.w	a4,a4
    80001ad8:	0007879b          	sext.w	a5,a5
    80001adc:	fef740e3          	blt	a4,a5,80001abc <printSolution+0x20>
    80001ae0:	00000013          	nop
    80001ae4:	00000013          	nop
    80001ae8:	02813403          	ld	s0,40(sp)
    80001aec:	03010113          	add	sp,sp,48
    80001af0:	00008067          	ret

0000000080001af4 <dijkstra>:
    80001af4:	f4010113          	add	sp,sp,-192
    80001af8:	0a113c23          	sd	ra,184(sp)
    80001afc:	0a813823          	sd	s0,176(sp)
    80001b00:	0a913423          	sd	s1,168(sp)
    80001b04:	0b213023          	sd	s2,160(sp)
    80001b08:	09313c23          	sd	s3,152(sp)
    80001b0c:	09413823          	sd	s4,144(sp)
    80001b10:	09513423          	sd	s5,136(sp)
    80001b14:	09613023          	sd	s6,128(sp)
    80001b18:	07713c23          	sd	s7,120(sp)
    80001b1c:	07813823          	sd	s8,112(sp)
    80001b20:	07913423          	sd	s9,104(sp)
    80001b24:	07a13023          	sd	s10,96(sp)
    80001b28:	05b13c23          	sd	s11,88(sp)
    80001b2c:	0c010413          	add	s0,sp,192
    80001b30:	00050693          	mv	a3,a0
    80001b34:	f4b43023          	sd	a1,-192(s0)
    80001b38:	f4d42623          	sw	a3,-180(s0)
    80001b3c:	00060693          	mv	a3,a2
    80001b40:	f4d42423          	sw	a3,-184(s0)
    80001b44:	f4c42483          	lw	s1,-180(s0)
    80001b48:	00048693          	mv	a3,s1
    80001b4c:	fff68693          	add	a3,a3,-1
    80001b50:	f6d43c23          	sd	a3,-136(s0)
    80001b54:	00048693          	mv	a3,s1
    80001b58:	00068d13          	mv	s10,a3
    80001b5c:	00000d93          	li	s11,0
    80001b60:	03bd5693          	srl	a3,s10,0x3b
    80001b64:	005d9f93          	sll	t6,s11,0x5
    80001b68:	01f6efb3          	or	t6,a3,t6
    80001b6c:	005d1f13          	sll	t5,s10,0x5
    80001b70:	00010693          	mv	a3,sp
    80001b74:	00068d13          	mv	s10,a3
    80001b78:	f4c42683          	lw	a3,-180(s0)
    80001b7c:	00068613          	mv	a2,a3
    80001b80:	fff60613          	add	a2,a2,-1
    80001b84:	f6c43823          	sd	a2,-144(s0)
    80001b88:	00068613          	mv	a2,a3
    80001b8c:	00060c13          	mv	s8,a2
    80001b90:	00000c93          	li	s9,0
    80001b94:	03bc5613          	srl	a2,s8,0x3b
    80001b98:	005c9e93          	sll	t4,s9,0x5
    80001b9c:	01d66eb3          	or	t4,a2,t4
    80001ba0:	005c1e13          	sll	t3,s8,0x5
    80001ba4:	00068613          	mv	a2,a3
    80001ba8:	00060b13          	mv	s6,a2
    80001bac:	00000b93          	li	s7,0
    80001bb0:	03bb5613          	srl	a2,s6,0x3b
    80001bb4:	005b9393          	sll	t2,s7,0x5
    80001bb8:	007663b3          	or	t2,a2,t2
    80001bbc:	005b1313          	sll	t1,s6,0x5
    80001bc0:	00269693          	sll	a3,a3,0x2
    80001bc4:	00f68693          	add	a3,a3,15
    80001bc8:	0046d693          	srl	a3,a3,0x4
    80001bcc:	00469693          	sll	a3,a3,0x4
    80001bd0:	40d10133          	sub	sp,sp,a3
    80001bd4:	00010693          	mv	a3,sp
    80001bd8:	00368693          	add	a3,a3,3
    80001bdc:	0026d693          	srl	a3,a3,0x2
    80001be0:	00269693          	sll	a3,a3,0x2
    80001be4:	f6d43423          	sd	a3,-152(s0)
    80001be8:	f4c42683          	lw	a3,-180(s0)
    80001bec:	00068613          	mv	a2,a3
    80001bf0:	fff60613          	add	a2,a2,-1
    80001bf4:	f6c43023          	sd	a2,-160(s0)
    80001bf8:	00068613          	mv	a2,a3
    80001bfc:	00060a13          	mv	s4,a2
    80001c00:	00000a93          	li	s5,0
    80001c04:	03da5613          	srl	a2,s4,0x3d
    80001c08:	003a9893          	sll	a7,s5,0x3
    80001c0c:	011668b3          	or	a7,a2,a7
    80001c10:	003a1813          	sll	a6,s4,0x3
    80001c14:	00068613          	mv	a2,a3
    80001c18:	00060913          	mv	s2,a2
    80001c1c:	00000993          	li	s3,0
    80001c20:	03d95613          	srl	a2,s2,0x3d
    80001c24:	00399793          	sll	a5,s3,0x3
    80001c28:	00f667b3          	or	a5,a2,a5
    80001c2c:	00391713          	sll	a4,s2,0x3
    80001c30:	00068793          	mv	a5,a3
    80001c34:	00f78793          	add	a5,a5,15
    80001c38:	0047d793          	srl	a5,a5,0x4
    80001c3c:	00479793          	sll	a5,a5,0x4
    80001c40:	40f10133          	sub	sp,sp,a5
    80001c44:	00010793          	mv	a5,sp
    80001c48:	00078793          	mv	a5,a5
    80001c4c:	f4f43c23          	sd	a5,-168(s0)
    80001c50:	f8042623          	sw	zero,-116(s0)
    80001c54:	03c0006f          	j	80001c90 <dijkstra+0x19c>
    80001c58:	f6843703          	ld	a4,-152(s0)
    80001c5c:	f8c42783          	lw	a5,-116(s0)
    80001c60:	00279793          	sll	a5,a5,0x2
    80001c64:	00f707b3          	add	a5,a4,a5
    80001c68:	80000737          	lui	a4,0x80000
    80001c6c:	fff74713          	not	a4,a4
    80001c70:	00e7a023          	sw	a4,0(a5)
    80001c74:	f5843703          	ld	a4,-168(s0)
    80001c78:	f8c42783          	lw	a5,-116(s0)
    80001c7c:	00f707b3          	add	a5,a4,a5
    80001c80:	00078023          	sb	zero,0(a5)
    80001c84:	f8c42783          	lw	a5,-116(s0)
    80001c88:	0017879b          	addw	a5,a5,1
    80001c8c:	f8f42623          	sw	a5,-116(s0)
    80001c90:	f8c42783          	lw	a5,-116(s0)
    80001c94:	00078713          	mv	a4,a5
    80001c98:	f4c42783          	lw	a5,-180(s0)
    80001c9c:	0007071b          	sext.w	a4,a4
    80001ca0:	0007879b          	sext.w	a5,a5
    80001ca4:	faf74ae3          	blt	a4,a5,80001c58 <dijkstra+0x164>
    80001ca8:	f6843703          	ld	a4,-152(s0)
    80001cac:	f4842783          	lw	a5,-184(s0)
    80001cb0:	00279793          	sll	a5,a5,0x2
    80001cb4:	00f707b3          	add	a5,a4,a5
    80001cb8:	0007a023          	sw	zero,0(a5)
    80001cbc:	f8042423          	sw	zero,-120(s0)
    80001cc0:	1900006f          	j	80001e50 <dijkstra+0x35c>
    80001cc4:	f4c42783          	lw	a5,-180(s0)
    80001cc8:	f5843603          	ld	a2,-168(s0)
    80001ccc:	f6843583          	ld	a1,-152(s0)
    80001cd0:	00078513          	mv	a0,a5
    80001cd4:	d05ff0ef          	jal	800019d8 <minDistance>
    80001cd8:	00050793          	mv	a5,a0
    80001cdc:	f4f42a23          	sw	a5,-172(s0)
    80001ce0:	f5843703          	ld	a4,-168(s0)
    80001ce4:	f5442783          	lw	a5,-172(s0)
    80001ce8:	00f707b3          	add	a5,a4,a5
    80001cec:	00100713          	li	a4,1
    80001cf0:	00e78023          	sb	a4,0(a5)
    80001cf4:	f8042223          	sw	zero,-124(s0)
    80001cf8:	1340006f          	j	80001e2c <dijkstra+0x338>
    80001cfc:	f5843703          	ld	a4,-168(s0)
    80001d00:	f8442783          	lw	a5,-124(s0)
    80001d04:	00f707b3          	add	a5,a4,a5
    80001d08:	0007c783          	lbu	a5,0(a5)
    80001d0c:	0017c793          	xor	a5,a5,1
    80001d10:	0ff7f793          	zext.b	a5,a5
    80001d14:	10078663          	beqz	a5,80001e20 <dijkstra+0x32c>
    80001d18:	f5442783          	lw	a5,-172(s0)
    80001d1c:	00048713          	mv	a4,s1
    80001d20:	02e787b3          	mul	a5,a5,a4
    80001d24:	00279793          	sll	a5,a5,0x2
    80001d28:	f4043703          	ld	a4,-192(s0)
    80001d2c:	00f70733          	add	a4,a4,a5
    80001d30:	f8442783          	lw	a5,-124(s0)
    80001d34:	00279793          	sll	a5,a5,0x2
    80001d38:	00f707b3          	add	a5,a4,a5
    80001d3c:	0007a783          	lw	a5,0(a5)
    80001d40:	0e078063          	beqz	a5,80001e20 <dijkstra+0x32c>
    80001d44:	f6843703          	ld	a4,-152(s0)
    80001d48:	f5442783          	lw	a5,-172(s0)
    80001d4c:	00279793          	sll	a5,a5,0x2
    80001d50:	00f707b3          	add	a5,a4,a5
    80001d54:	0007a783          	lw	a5,0(a5)
    80001d58:	00078713          	mv	a4,a5
    80001d5c:	800007b7          	lui	a5,0x80000
    80001d60:	fff7c793          	not	a5,a5
    80001d64:	0af70e63          	beq	a4,a5,80001e20 <dijkstra+0x32c>
    80001d68:	f6843703          	ld	a4,-152(s0)
    80001d6c:	f5442783          	lw	a5,-172(s0)
    80001d70:	00279793          	sll	a5,a5,0x2
    80001d74:	00f707b3          	add	a5,a4,a5
    80001d78:	0007a703          	lw	a4,0(a5) # ffffffff80000000 <_end+0xfffffffefffed570>
    80001d7c:	f5442783          	lw	a5,-172(s0)
    80001d80:	00048693          	mv	a3,s1
    80001d84:	02d787b3          	mul	a5,a5,a3
    80001d88:	00279793          	sll	a5,a5,0x2
    80001d8c:	f4043683          	ld	a3,-192(s0)
    80001d90:	00f686b3          	add	a3,a3,a5
    80001d94:	f8442783          	lw	a5,-124(s0)
    80001d98:	00279793          	sll	a5,a5,0x2
    80001d9c:	00f687b3          	add	a5,a3,a5
    80001da0:	0007a783          	lw	a5,0(a5)
    80001da4:	00f707bb          	addw	a5,a4,a5
    80001da8:	0007869b          	sext.w	a3,a5
    80001dac:	f6843703          	ld	a4,-152(s0)
    80001db0:	f8442783          	lw	a5,-124(s0)
    80001db4:	00279793          	sll	a5,a5,0x2
    80001db8:	00f707b3          	add	a5,a4,a5
    80001dbc:	0007a783          	lw	a5,0(a5)
    80001dc0:	00068713          	mv	a4,a3
    80001dc4:	04f75e63          	bge	a4,a5,80001e20 <dijkstra+0x32c>
    80001dc8:	f6843703          	ld	a4,-152(s0)
    80001dcc:	f5442783          	lw	a5,-172(s0)
    80001dd0:	00279793          	sll	a5,a5,0x2
    80001dd4:	00f707b3          	add	a5,a4,a5
    80001dd8:	0007a703          	lw	a4,0(a5)
    80001ddc:	f5442783          	lw	a5,-172(s0)
    80001de0:	00048693          	mv	a3,s1
    80001de4:	02d787b3          	mul	a5,a5,a3
    80001de8:	00279793          	sll	a5,a5,0x2
    80001dec:	f4043683          	ld	a3,-192(s0)
    80001df0:	00f686b3          	add	a3,a3,a5
    80001df4:	f8442783          	lw	a5,-124(s0)
    80001df8:	00279793          	sll	a5,a5,0x2
    80001dfc:	00f687b3          	add	a5,a3,a5
    80001e00:	0007a783          	lw	a5,0(a5)
    80001e04:	00f707bb          	addw	a5,a4,a5
    80001e08:	0007871b          	sext.w	a4,a5
    80001e0c:	f6843683          	ld	a3,-152(s0)
    80001e10:	f8442783          	lw	a5,-124(s0)
    80001e14:	00279793          	sll	a5,a5,0x2
    80001e18:	00f687b3          	add	a5,a3,a5
    80001e1c:	00e7a023          	sw	a4,0(a5)
    80001e20:	f8442783          	lw	a5,-124(s0)
    80001e24:	0017879b          	addw	a5,a5,1
    80001e28:	f8f42223          	sw	a5,-124(s0)
    80001e2c:	f8442783          	lw	a5,-124(s0)
    80001e30:	00078713          	mv	a4,a5
    80001e34:	f4c42783          	lw	a5,-180(s0)
    80001e38:	0007071b          	sext.w	a4,a4
    80001e3c:	0007879b          	sext.w	a5,a5
    80001e40:	eaf74ee3          	blt	a4,a5,80001cfc <dijkstra+0x208>
    80001e44:	f8842783          	lw	a5,-120(s0)
    80001e48:	0017879b          	addw	a5,a5,1
    80001e4c:	f8f42423          	sw	a5,-120(s0)
    80001e50:	f4c42783          	lw	a5,-180(s0)
    80001e54:	fff7879b          	addw	a5,a5,-1
    80001e58:	0007871b          	sext.w	a4,a5
    80001e5c:	f8842783          	lw	a5,-120(s0)
    80001e60:	0007879b          	sext.w	a5,a5
    80001e64:	e6e7c0e3          	blt	a5,a4,80001cc4 <dijkstra+0x1d0>
    80001e68:	f4c42783          	lw	a5,-180(s0)
    80001e6c:	f6843583          	ld	a1,-152(s0)
    80001e70:	00078513          	mv	a0,a5
    80001e74:	c29ff0ef          	jal	80001a9c <printSolution>
    80001e78:	000d0113          	mv	sp,s10
    80001e7c:	00000013          	nop
    80001e80:	f4040113          	add	sp,s0,-192
    80001e84:	0b813083          	ld	ra,184(sp)
    80001e88:	0b013403          	ld	s0,176(sp)
    80001e8c:	0a813483          	ld	s1,168(sp)
    80001e90:	0a013903          	ld	s2,160(sp)
    80001e94:	09813983          	ld	s3,152(sp)
    80001e98:	09013a03          	ld	s4,144(sp)
    80001e9c:	08813a83          	ld	s5,136(sp)
    80001ea0:	08013b03          	ld	s6,128(sp)
    80001ea4:	07813b83          	ld	s7,120(sp)
    80001ea8:	07013c03          	ld	s8,112(sp)
    80001eac:	06813c83          	ld	s9,104(sp)
    80001eb0:	06013d03          	ld	s10,96(sp)
    80001eb4:	05813d83          	ld	s11,88(sp)
    80001eb8:	0c010113          	add	sp,sp,192
    80001ebc:	00008067          	ret

0000000080001ec0 <dijkstra_simple_call>:
    80001ec0:	ea010113          	add	sp,sp,-352
    80001ec4:	14113c23          	sd	ra,344(sp)
    80001ec8:	14813823          	sd	s0,336(sp)
    80001ecc:	16010413          	add	s0,sp,352
    80001ed0:	00000717          	auipc	a4,0x0
    80001ed4:	79070713          	add	a4,a4,1936 # 80002660 <func_ptr+0x170>
    80001ed8:	ea840793          	add	a5,s0,-344
    80001edc:	00070693          	mv	a3,a4
    80001ee0:	14400713          	li	a4,324
    80001ee4:	00070613          	mv	a2,a4
    80001ee8:	00068593          	mv	a1,a3
    80001eec:	00078513          	mv	a0,a5
    80001ef0:	f08ff0ef          	jal	800015f8 <memcpy>
    80001ef4:	ea840793          	add	a5,s0,-344
    80001ef8:	00000613          	li	a2,0
    80001efc:	00078593          	mv	a1,a5
    80001f00:	00900513          	li	a0,9
    80001f04:	bf1ff0ef          	jal	80001af4 <dijkstra>
    80001f08:	00000013          	nop
    80001f0c:	15813083          	ld	ra,344(sp)
    80001f10:	15013403          	ld	s0,336(sp)
    80001f14:	16010113          	add	sp,sp,352
    80001f18:	00008067          	ret

0000000080001f1c <bfs>:
    80001f1c:	fb010113          	add	sp,sp,-80
    80001f20:	04113423          	sd	ra,72(sp)
    80001f24:	04813023          	sd	s0,64(sp)
    80001f28:	05010413          	add	s0,sp,80
    80001f2c:	fcc43823          	sd	a2,-48(s0)
    80001f30:	fcd43423          	sd	a3,-56(s0)
    80001f34:	fce43023          	sd	a4,-64(s0)
    80001f38:	faf43c23          	sd	a5,-72(s0)
    80001f3c:	fb043823          	sd	a6,-80(s0)
    80001f40:	00050793          	mv	a5,a0
    80001f44:	fcf42e23          	sw	a5,-36(s0)
    80001f48:	00058793          	mv	a5,a1
    80001f4c:	fcf42c23          	sw	a5,-40(s0)
    80001f50:	fd842783          	lw	a5,-40(s0)
    80001f54:	00078713          	mv	a4,a5
    80001f58:	fff70713          	add	a4,a4,-1
    80001f5c:	fee43023          	sd	a4,-32(s0)
    80001f60:	00078713          	mv	a4,a5
    80001f64:	00070e13          	mv	t3,a4
    80001f68:	00000e93          	li	t4,0
    80001f6c:	03be5713          	srl	a4,t3,0x3b
    80001f70:	005e9393          	sll	t2,t4,0x5
    80001f74:	007763b3          	or	t2,a4,t2
    80001f78:	005e1313          	sll	t1,t3,0x5
    80001f7c:	00100713          	li	a4,1
    80001f80:	fee42623          	sw	a4,-20(s0)
    80001f84:	0880006f          	j	8000200c <bfs+0xf0>
    80001f88:	fdc42703          	lw	a4,-36(s0)
    80001f8c:	00078693          	mv	a3,a5
    80001f90:	02d70733          	mul	a4,a4,a3
    80001f94:	00271713          	sll	a4,a4,0x2
    80001f98:	fd043683          	ld	a3,-48(s0)
    80001f9c:	00e686b3          	add	a3,a3,a4
    80001fa0:	fec42703          	lw	a4,-20(s0)
    80001fa4:	00271713          	sll	a4,a4,0x2
    80001fa8:	00e68733          	add	a4,a3,a4
    80001fac:	00072703          	lw	a4,0(a4)
    80001fb0:	04070863          	beqz	a4,80002000 <bfs+0xe4>
    80001fb4:	fec42703          	lw	a4,-20(s0)
    80001fb8:	00271713          	sll	a4,a4,0x2
    80001fbc:	fc843683          	ld	a3,-56(s0)
    80001fc0:	00e68733          	add	a4,a3,a4
    80001fc4:	00072703          	lw	a4,0(a4)
    80001fc8:	02071c63          	bnez	a4,80002000 <bfs+0xe4>
    80001fcc:	fb043703          	ld	a4,-80(s0)
    80001fd0:	00072703          	lw	a4,0(a4)
    80001fd4:	0017071b          	addw	a4,a4,1
    80001fd8:	0007069b          	sext.w	a3,a4
    80001fdc:	fb043703          	ld	a4,-80(s0)
    80001fe0:	00d72023          	sw	a3,0(a4)
    80001fe4:	fb043703          	ld	a4,-80(s0)
    80001fe8:	00072703          	lw	a4,0(a4)
    80001fec:	00271713          	sll	a4,a4,0x2
    80001ff0:	fc043683          	ld	a3,-64(s0)
    80001ff4:	00e68733          	add	a4,a3,a4
    80001ff8:	fec42683          	lw	a3,-20(s0)
    80001ffc:	00d72023          	sw	a3,0(a4)
    80002000:	fec42703          	lw	a4,-20(s0)
    80002004:	0017071b          	addw	a4,a4,1
    80002008:	fee42623          	sw	a4,-20(s0)
    8000200c:	fec42703          	lw	a4,-20(s0)
    80002010:	00070693          	mv	a3,a4
    80002014:	fd842703          	lw	a4,-40(s0)
    80002018:	0006869b          	sext.w	a3,a3
    8000201c:	0007071b          	sext.w	a4,a4
    80002020:	f6d754e3          	bge	a4,a3,80001f88 <bfs+0x6c>
    80002024:	fb843783          	ld	a5,-72(s0)
    80002028:	0007a703          	lw	a4,0(a5)
    8000202c:	fb043783          	ld	a5,-80(s0)
    80002030:	0007a783          	lw	a5,0(a5)
    80002034:	06e7ca63          	blt	a5,a4,800020a8 <bfs+0x18c>
    80002038:	fb843783          	ld	a5,-72(s0)
    8000203c:	0007a783          	lw	a5,0(a5)
    80002040:	00279793          	sll	a5,a5,0x2
    80002044:	fc043703          	ld	a4,-64(s0)
    80002048:	00f707b3          	add	a5,a4,a5
    8000204c:	0007a783          	lw	a5,0(a5)
    80002050:	00279793          	sll	a5,a5,0x2
    80002054:	fc843703          	ld	a4,-56(s0)
    80002058:	00f707b3          	add	a5,a4,a5
    8000205c:	00100713          	li	a4,1
    80002060:	00e7a023          	sw	a4,0(a5)
    80002064:	fb843783          	ld	a5,-72(s0)
    80002068:	0007a783          	lw	a5,0(a5)
    8000206c:	0017871b          	addw	a4,a5,1
    80002070:	0007069b          	sext.w	a3,a4
    80002074:	fb843703          	ld	a4,-72(s0)
    80002078:	00d72023          	sw	a3,0(a4)
    8000207c:	00279793          	sll	a5,a5,0x2
    80002080:	fc043703          	ld	a4,-64(s0)
    80002084:	00f707b3          	add	a5,a4,a5
    80002088:	0007a503          	lw	a0,0(a5)
    8000208c:	fd842583          	lw	a1,-40(s0)
    80002090:	fb043803          	ld	a6,-80(s0)
    80002094:	fb843783          	ld	a5,-72(s0)
    80002098:	fc043703          	ld	a4,-64(s0)
    8000209c:	fc843683          	ld	a3,-56(s0)
    800020a0:	fd043603          	ld	a2,-48(s0)
    800020a4:	e79ff0ef          	jal	80001f1c <bfs>
    800020a8:	00000013          	nop
    800020ac:	04813083          	ld	ra,72(sp)
    800020b0:	04013403          	ld	s0,64(sp)
    800020b4:	05010113          	add	sp,sp,80
    800020b8:	00008067          	ret

00000000800020bc <bfs_simple_call>:
    800020bc:	e5010113          	add	sp,sp,-432
    800020c0:	1a113423          	sd	ra,424(sp)
    800020c4:	1a813023          	sd	s0,416(sp)
    800020c8:	1b010413          	add	s0,sp,432
    800020cc:	fc043423          	sd	zero,-56(s0)
    800020d0:	fc043823          	sd	zero,-48(s0)
    800020d4:	fc043c23          	sd	zero,-40(s0)
    800020d8:	fe043023          	sd	zero,-32(s0)
    800020dc:	fe042423          	sw	zero,-24(s0)
    800020e0:	fa043023          	sd	zero,-96(s0)
    800020e4:	fa043423          	sd	zero,-88(s0)
    800020e8:	fa043823          	sd	zero,-80(s0)
    800020ec:	fa043c23          	sd	zero,-72(s0)
    800020f0:	fc042023          	sw	zero,-64(s0)
    800020f4:	00000717          	auipc	a4,0x0
    800020f8:	6b470713          	add	a4,a4,1716 # 800027a8 <func_ptr+0x2b8>
    800020fc:	e5840793          	add	a5,s0,-424
    80002100:	00070693          	mv	a3,a4
    80002104:	14400713          	li	a4,324
    80002108:	00070613          	mv	a2,a4
    8000210c:	00068593          	mv	a1,a3
    80002110:	00078513          	mv	a0,a5
    80002114:	ce4ff0ef          	jal	800015f8 <memcpy>
    80002118:	fff00793          	li	a5,-1
    8000211c:	e4f42a23          	sw	a5,-428(s0)
    80002120:	fff00793          	li	a5,-1
    80002124:	e4f42823          	sw	a5,-432(s0)
    80002128:	e5040593          	add	a1,s0,-432
    8000212c:	e5440793          	add	a5,s0,-428
    80002130:	fa040713          	add	a4,s0,-96
    80002134:	fc840693          	add	a3,s0,-56
    80002138:	e5840613          	add	a2,s0,-424
    8000213c:	00058813          	mv	a6,a1
    80002140:	00900593          	li	a1,9
    80002144:	00200513          	li	a0,2
    80002148:	dd5ff0ef          	jal	80001f1c <bfs>
    8000214c:	00000013          	nop
    80002150:	1a813083          	ld	ra,424(sp)
    80002154:	1a013403          	ld	s0,416(sp)
    80002158:	1b010113          	add	sp,sp,432
    8000215c:	00008067          	ret

0000000080002160 <dfs>:
    80002160:	fb010113          	add	sp,sp,-80
    80002164:	04113423          	sd	ra,72(sp)
    80002168:	04813023          	sd	s0,64(sp)
    8000216c:	02913c23          	sd	s1,56(sp)
    80002170:	05010413          	add	s0,sp,80
    80002174:	fcc43023          	sd	a2,-64(s0)
    80002178:	fad43c23          	sd	a3,-72(s0)
    8000217c:	00050693          	mv	a3,a0
    80002180:	fcd42623          	sw	a3,-52(s0)
    80002184:	00058693          	mv	a3,a1
    80002188:	fcd42423          	sw	a3,-56(s0)
    8000218c:	fc842683          	lw	a3,-56(s0)
    80002190:	0016869b          	addw	a3,a3,1
    80002194:	0006849b          	sext.w	s1,a3
    80002198:	00048693          	mv	a3,s1
    8000219c:	fff68693          	add	a3,a3,-1
    800021a0:	fcd43823          	sd	a3,-48(s0)
    800021a4:	00048693          	mv	a3,s1
    800021a8:	00068813          	mv	a6,a3
    800021ac:	00000893          	li	a7,0
    800021b0:	03b85693          	srl	a3,a6,0x3b
    800021b4:	00589793          	sll	a5,a7,0x5
    800021b8:	00f6e7b3          	or	a5,a3,a5
    800021bc:	00581713          	sll	a4,a6,0x5
    800021c0:	fcc42783          	lw	a5,-52(s0)
    800021c4:	00279793          	sll	a5,a5,0x2
    800021c8:	fb843703          	ld	a4,-72(s0)
    800021cc:	00f707b3          	add	a5,a4,a5
    800021d0:	00100713          	li	a4,1
    800021d4:	00e7a023          	sw	a4,0(a5)
    800021d8:	00100793          	li	a5,1
    800021dc:	fcf42e23          	sw	a5,-36(s0)
    800021e0:	0700006f          	j	80002250 <dfs+0xf0>
    800021e4:	fcc42783          	lw	a5,-52(s0)
    800021e8:	00048713          	mv	a4,s1
    800021ec:	02e787b3          	mul	a5,a5,a4
    800021f0:	00279793          	sll	a5,a5,0x2
    800021f4:	fc043703          	ld	a4,-64(s0)
    800021f8:	00f70733          	add	a4,a4,a5
    800021fc:	fdc42783          	lw	a5,-36(s0)
    80002200:	00279793          	sll	a5,a5,0x2
    80002204:	00f707b3          	add	a5,a4,a5
    80002208:	0007a783          	lw	a5,0(a5)
    8000220c:	02078c63          	beqz	a5,80002244 <dfs+0xe4>
    80002210:	fdc42783          	lw	a5,-36(s0)
    80002214:	00279793          	sll	a5,a5,0x2
    80002218:	fb843703          	ld	a4,-72(s0)
    8000221c:	00f707b3          	add	a5,a4,a5
    80002220:	0007a783          	lw	a5,0(a5)
    80002224:	02079063          	bnez	a5,80002244 <dfs+0xe4>
    80002228:	fc842703          	lw	a4,-56(s0)
    8000222c:	fdc42783          	lw	a5,-36(s0)
    80002230:	fb843683          	ld	a3,-72(s0)
    80002234:	fc043603          	ld	a2,-64(s0)
    80002238:	00070593          	mv	a1,a4
    8000223c:	00078513          	mv	a0,a5
    80002240:	f21ff0ef          	jal	80002160 <dfs>
    80002244:	fdc42783          	lw	a5,-36(s0)
    80002248:	0017879b          	addw	a5,a5,1
    8000224c:	fcf42e23          	sw	a5,-36(s0)
    80002250:	fdc42783          	lw	a5,-36(s0)
    80002254:	00078713          	mv	a4,a5
    80002258:	fc842783          	lw	a5,-56(s0)
    8000225c:	0007071b          	sext.w	a4,a4
    80002260:	0007879b          	sext.w	a5,a5
    80002264:	f8e7d0e3          	bge	a5,a4,800021e4 <dfs+0x84>
    80002268:	00000013          	nop
    8000226c:	00000013          	nop
    80002270:	04813083          	ld	ra,72(sp)
    80002274:	04013403          	ld	s0,64(sp)
    80002278:	03813483          	ld	s1,56(sp)
    8000227c:	05010113          	add	sp,sp,80
    80002280:	00008067          	ret

0000000080002284 <dfs_simple_call>:
    80002284:	e7010113          	add	sp,sp,-400
    80002288:	18113423          	sd	ra,392(sp)
    8000228c:	18813023          	sd	s0,384(sp)
    80002290:	19010413          	add	s0,sp,400
    80002294:	fc043023          	sd	zero,-64(s0)
    80002298:	fc043423          	sd	zero,-56(s0)
    8000229c:	fc043823          	sd	zero,-48(s0)
    800022a0:	fc043c23          	sd	zero,-40(s0)
    800022a4:	fe042023          	sw	zero,-32(s0)
    800022a8:	00000717          	auipc	a4,0x0
    800022ac:	64870713          	add	a4,a4,1608 # 800028f0 <func_ptr+0x400>
    800022b0:	e7840793          	add	a5,s0,-392
    800022b4:	00070693          	mv	a3,a4
    800022b8:	14400713          	li	a4,324
    800022bc:	00070613          	mv	a2,a4
    800022c0:	00068593          	mv	a1,a3
    800022c4:	00078513          	mv	a0,a5
    800022c8:	b30ff0ef          	jal	800015f8 <memcpy>
    800022cc:	fc040713          	add	a4,s0,-64
    800022d0:	e7840793          	add	a5,s0,-392
    800022d4:	00070693          	mv	a3,a4
    800022d8:	00078613          	mv	a2,a5
    800022dc:	00800593          	li	a1,8
    800022e0:	00100513          	li	a0,1
    800022e4:	e7dff0ef          	jal	80002160 <dfs>
    800022e8:	fe042623          	sw	zero,-20(s0)
    800022ec:	00100793          	li	a5,1
    800022f0:	fef42423          	sw	a5,-24(s0)
    800022f4:	0340006f          	j	80002328 <dfs_simple_call+0xa4>
    800022f8:	fe842783          	lw	a5,-24(s0)
    800022fc:	00279793          	sll	a5,a5,0x2
    80002300:	ff078793          	add	a5,a5,-16
    80002304:	008787b3          	add	a5,a5,s0
    80002308:	fd07a783          	lw	a5,-48(a5)
    8000230c:	00078863          	beqz	a5,8000231c <dfs_simple_call+0x98>
    80002310:	fec42783          	lw	a5,-20(s0)
    80002314:	0017879b          	addw	a5,a5,1
    80002318:	fef42623          	sw	a5,-20(s0)
    8000231c:	fe842783          	lw	a5,-24(s0)
    80002320:	0017879b          	addw	a5,a5,1
    80002324:	fef42423          	sw	a5,-24(s0)
    80002328:	fe842783          	lw	a5,-24(s0)
    8000232c:	0007871b          	sext.w	a4,a5
    80002330:	00800793          	li	a5,8
    80002334:	fce7d2e3          	bge	a5,a4,800022f8 <dfs_simple_call+0x74>
    80002338:	00000013          	nop
    8000233c:	00000013          	nop
    80002340:	18813083          	ld	ra,392(sp)
    80002344:	18013403          	ld	s0,384(sp)
    80002348:	19010113          	add	sp,sp,400
    8000234c:	00008067          	ret

0000000080002350 <uart_pynq_putchar>:
    80002350:	fe010113          	add	sp,sp,-32
    80002354:	00813c23          	sd	s0,24(sp)
    80002358:	02010413          	add	s0,sp,32
    8000235c:	00050793          	mv	a5,a0
    80002360:	fef407a3          	sb	a5,-17(s0)
    80002364:	00000797          	auipc	a5,0x0
    80002368:	72478793          	add	a5,a5,1828 # 80002a88 <uart_pynq>
    8000236c:	0007b783          	ld	a5,0(a5)
    80002370:	fef44703          	lbu	a4,-17(s0)
    80002374:	0007071b          	sext.w	a4,a4
    80002378:	00e7a023          	sw	a4,0(a5)
    8000237c:	00000013          	nop
    80002380:	00078513          	mv	a0,a5
    80002384:	01813403          	ld	s0,24(sp)
    80002388:	02010113          	add	sp,sp,32
    8000238c:	00008067          	ret

0000000080002390 <uart_pynq_data_available>:
    80002390:	ff010113          	add	sp,sp,-16
    80002394:	00813423          	sd	s0,8(sp)
    80002398:	01010413          	add	s0,sp,16
    8000239c:	00000797          	auipc	a5,0x0
    800023a0:	6ec78793          	add	a5,a5,1772 # 80002a88 <uart_pynq>
    800023a4:	0007b783          	ld	a5,0(a5)
    800023a8:	01478793          	add	a5,a5,20
    800023ac:	0007a783          	lw	a5,0(a5)
    800023b0:	0007879b          	sext.w	a5,a5
    800023b4:	0017f793          	and	a5,a5,1
    800023b8:	0007879b          	sext.w	a5,a5
    800023bc:	00078513          	mv	a0,a5
    800023c0:	00813403          	ld	s0,8(sp)
    800023c4:	01010113          	add	sp,sp,16
    800023c8:	00008067          	ret

00000000800023cc <uart_pynq_getchar>:
    800023cc:	ff010113          	add	sp,sp,-16
    800023d0:	00113423          	sd	ra,8(sp)
    800023d4:	00813023          	sd	s0,0(sp)
    800023d8:	01010413          	add	s0,sp,16
    800023dc:	00000013          	nop
    800023e0:	fb1ff0ef          	jal	80002390 <uart_pynq_data_available>
    800023e4:	00050793          	mv	a5,a0
    800023e8:	fe078ce3          	beqz	a5,800023e0 <uart_pynq_getchar+0x14>
    800023ec:	00000797          	auipc	a5,0x0
    800023f0:	69c78793          	add	a5,a5,1692 # 80002a88 <uart_pynq>
    800023f4:	0007b783          	ld	a5,0(a5)
    800023f8:	0007a783          	lw	a5,0(a5)
    800023fc:	0007879b          	sext.w	a5,a5
    80002400:	0ff7f793          	zext.b	a5,a5
    80002404:	0007879b          	sext.w	a5,a5
    80002408:	00078513          	mv	a0,a5
    8000240c:	00813083          	ld	ra,8(sp)
    80002410:	00013403          	ld	s0,0(sp)
    80002414:	01010113          	add	sp,sp,16
    80002418:	00008067          	ret

000000008000241c <uart_pynq_puts>:
    8000241c:	fe010113          	add	sp,sp,-32
    80002420:	00113c23          	sd	ra,24(sp)
    80002424:	00813823          	sd	s0,16(sp)
    80002428:	02010413          	add	s0,sp,32
    8000242c:	fea43423          	sd	a0,-24(s0)
    80002430:	01c0006f          	j	8000244c <uart_pynq_puts+0x30>
    80002434:	fe843783          	ld	a5,-24(s0)
    80002438:	00178713          	add	a4,a5,1
    8000243c:	fee43423          	sd	a4,-24(s0)
    80002440:	0007c783          	lbu	a5,0(a5)
    80002444:	00078513          	mv	a0,a5
    80002448:	f09ff0ef          	jal	80002350 <uart_pynq_putchar>
    8000244c:	fe843783          	ld	a5,-24(s0)
    80002450:	0007c783          	lbu	a5,0(a5)
    80002454:	fe0790e3          	bnez	a5,80002434 <uart_pynq_puts+0x18>
    80002458:	00a00513          	li	a0,10
    8000245c:	ef5ff0ef          	jal	80002350 <uart_pynq_putchar>
    80002460:	00000013          	nop
    80002464:	01813083          	ld	ra,24(sp)
    80002468:	01013403          	ld	s0,16(sp)
    8000246c:	02010113          	add	sp,sp,32
    80002470:	00008067          	ret

0000000080002474 <uart_pynq_printf>:
    80002474:	b9010113          	add	sp,sp,-1136
    80002478:	42113423          	sd	ra,1064(sp)
    8000247c:	42813023          	sd	s0,1056(sp)
    80002480:	43010413          	add	s0,sp,1072
    80002484:	bca43c23          	sd	a0,-1064(s0)
    80002488:	00b43423          	sd	a1,8(s0)
    8000248c:	00c43823          	sd	a2,16(s0)
    80002490:	00d43c23          	sd	a3,24(s0)
    80002494:	02e43023          	sd	a4,32(s0)
    80002498:	02f43423          	sd	a5,40(s0)
    8000249c:	03043823          	sd	a6,48(s0)
    800024a0:	03143c23          	sd	a7,56(s0)
    800024a4:	04040793          	add	a5,s0,64
    800024a8:	bcf43823          	sd	a5,-1072(s0)
    800024ac:	bd043783          	ld	a5,-1072(s0)
    800024b0:	fc878793          	add	a5,a5,-56
    800024b4:	bef43423          	sd	a5,-1048(s0)
    800024b8:	be843703          	ld	a4,-1048(s0)
    800024bc:	bf040793          	add	a5,s0,-1040
    800024c0:	00070613          	mv	a2,a4
    800024c4:	bd843583          	ld	a1,-1064(s0)
    800024c8:	00078513          	mv	a0,a5
    800024cc:	b45fe0ef          	jal	80001010 <vsprintf>
    800024d0:	bf040793          	add	a5,s0,-1040
    800024d4:	00078513          	mv	a0,a5
    800024d8:	f45ff0ef          	jal	8000241c <uart_pynq_puts>
    800024dc:	00000013          	nop
    800024e0:	42813083          	ld	ra,1064(sp)
    800024e4:	42013403          	ld	s0,1056(sp)
    800024e8:	47010113          	add	sp,sp,1136
    800024ec:	00008067          	ret
