
riscv-example:     file format elf64-littleriscv

Contents of section .text:
 70000000 f32240f1 63980200 17010010 1301817f  ."@.c...........
 70000010 6f004018 73005010 f5bf7971 22f40018  o.@.s.P...yq"...
 70000020 aa872e87 232ef4fc ba87232c f4fc8327  ....#.....#,...'
 70000030 84fd9b97 47008127 0327c4fd bb47f702  ....G..'.'...G..
 70000040 2326f4fe 97070000 9387471f 9c63b107  #&........G..c..
 70000050 13070008 98c39707 00009387 271e9c63  ............'..c
 70000060 0327c4fe 1377f70f 012798c3 8327c4fe  .'...w...'...'..
 70000070 9bd78740 1b870700 97070000 9387071c  ...@............
 70000080 9c639107 1377f70f 012798c3 97070000  .c...w...'......
 70000090 9387c71a 9c63b107 0d4798c3 01002274  .....c...G...."t
 700000a0 45618280 411122e4 00089707 00009387  Ea..A.".........
 700000b0 e7189c63 a1071d47 98c30100 22644101  ...c...G...."dA.
 700000c0 82800111 22ec0010 aa87a307 f4fe0100  ...."...........
 700000d0 97070000 93878716 9c63d107 9c438127  .........c...C.'
 700000e0 93f70702 8127edd7 97070000 93870715  .....'..........
 700000f0 9c630347 f4fe0127 98c30100 3e856264  .c.G...'....>.bd
 70000100 05618280 411122e4 00089707 00009387  .a..A.".........
 70000110 e7129c63 d1079c43 8127858b 81273e85  ...c...C.'...'>.
 70000120 22644101 82804111 06e422e0 00080100  "dA...A...".....
 70000130 eff05ffd aa87eddf 97070000 93870710  .._.............
 70000140 9c639c43 812793f7 f70f8127 3e85a260  .c.C.'.....'>..`
 70000150 02644101 82800111 06ec22e8 00102334  .dA......."...#4
 70000160 a4fe21a8 833784fe 13871700 2334e4fe  ..!..7......#4..
 70000170 83c70700 3e85eff0 dff48337 84fe83c7  ....>......7....
 70000180 0700edf3 2945eff0 dff30100 e2604264  ....)E.......`Bd
 70000190 05618280 397106fc 22f88000 aa872326  .a..9q..".....#&
 700001a0 f4fceff0 3ff0f167 93850720 b7f7fa02  ....?..g... ....
 700001b0 13850708 eff07fe6 97070000 93870706  ................
 700001c0 2334f4fe 21a88337 84fe1387 17002334  #4..!..7......#4
 700001d0 e4fe83c7 07003e85 eff0bfee 833784fe  ......>......7..
 700001e0 83c70700 edf39707 00009387 27042330  ............'.#0
 700001f0 f4feeff0 5ff3aa87 a30ff4fc 833704fe  ...._........7..
 70000200 9d070347 f4fd2380 e7000335 04feeff0  ...G..#....5....
 70000210 9ff4c5b7                             ....            
Contents of section .rodata:
 70000218 48656c6c 6f20576f 726c6421 0a000000  Hello World!....
 70000228 74797065 643a2020 00                 typed:  .       
Contents of section .sdata:
 70000238 00003062 00000000                    ..0b....        
Contents of section .riscv.attributes:
 0000 41380000 00726973 63760001 2e000000  A8...riscv......
 0010 04100572 76363469 3270305f 6d327030  ...rv64i2p0_m2p0
 0020 5f613270 305f6632 70305f64 3270305f  _a2p0_f2p0_d2p0_
 0030 63327030 0008010a 0b                 c2p0.....       
Contents of section .comment:
 0000 4743433a 20286731 65613937 38653330  GCC: (g1ea978e30
 0010 36362920 31322e31 2e3000             66) 12.1.0.     

Disassembly of section .text:

0000000070000000 <_start>:
    70000000:	f14022f3          	csrr	t0,mhartid
    70000004:	00029863          	bnez	t0,70000014 <park>
    70000008:	10000117          	auipc	sp,0x10000
    7000000c:	7f810113          	addi	sp,sp,2040 # 80000800 <_end>
    70000010:	1840006f          	j	70000194 <main>

0000000070000014 <park>:
    70000014:	10500073          	wfi
    70000018:	bff5                	j	70000014 <park>

000000007000001a <set_baudrate>:
    7000001a:	7179                	addi	sp,sp,-48
    7000001c:	f422                	sd	s0,40(sp)
    7000001e:	1800                	addi	s0,sp,48
    70000020:	87aa                	mv	a5,a0
    70000022:	872e                	mv	a4,a1
    70000024:	fcf42e23          	sw	a5,-36(s0)
    70000028:	87ba                	mv	a5,a4
    7000002a:	fcf42c23          	sw	a5,-40(s0)
    7000002e:	fd842783          	lw	a5,-40(s0)
    70000032:	0047979b          	slliw	a5,a5,0x4
    70000036:	2781                	sext.w	a5,a5
    70000038:	fdc42703          	lw	a4,-36(s0)
    7000003c:	02f747bb          	divw	a5,a4,a5
    70000040:	fef42623          	sw	a5,-20(s0)
    70000044:	00000797          	auipc	a5,0x0
    70000048:	1f478793          	addi	a5,a5,500 # 70000238 <uart>
    7000004c:	639c                	ld	a5,0(a5)
    7000004e:	07b1                	addi	a5,a5,12
    70000050:	08000713          	li	a4,128
    70000054:	c398                	sw	a4,0(a5)
    70000056:	00000797          	auipc	a5,0x0
    7000005a:	1e278793          	addi	a5,a5,482 # 70000238 <uart>
    7000005e:	639c                	ld	a5,0(a5)
    70000060:	fec42703          	lw	a4,-20(s0)
    70000064:	0ff77713          	zext.b	a4,a4
    70000068:	2701                	sext.w	a4,a4
    7000006a:	c398                	sw	a4,0(a5)
    7000006c:	fec42783          	lw	a5,-20(s0)
    70000070:	4087d79b          	sraiw	a5,a5,0x8
    70000074:	0007871b          	sext.w	a4,a5
    70000078:	00000797          	auipc	a5,0x0
    7000007c:	1c078793          	addi	a5,a5,448 # 70000238 <uart>
    70000080:	639c                	ld	a5,0(a5)
    70000082:	0791                	addi	a5,a5,4
    70000084:	0ff77713          	zext.b	a4,a4
    70000088:	2701                	sext.w	a4,a4
    7000008a:	c398                	sw	a4,0(a5)
    7000008c:	00000797          	auipc	a5,0x0
    70000090:	1ac78793          	addi	a5,a5,428 # 70000238 <uart>
    70000094:	639c                	ld	a5,0(a5)
    70000096:	07b1                	addi	a5,a5,12
    70000098:	470d                	li	a4,3
    7000009a:	c398                	sw	a4,0(a5)
    7000009c:	0001                	nop
    7000009e:	7422                	ld	s0,40(sp)
    700000a0:	6145                	addi	sp,sp,48
    700000a2:	8082                	ret

00000000700000a4 <enable_fifos>:
    700000a4:	1141                	addi	sp,sp,-16
    700000a6:	e422                	sd	s0,8(sp)
    700000a8:	0800                	addi	s0,sp,16
    700000aa:	00000797          	auipc	a5,0x0
    700000ae:	18e78793          	addi	a5,a5,398 # 70000238 <uart>
    700000b2:	639c                	ld	a5,0(a5)
    700000b4:	07a1                	addi	a5,a5,8
    700000b6:	471d                	li	a4,7
    700000b8:	c398                	sw	a4,0(a5)
    700000ba:	0001                	nop
    700000bc:	6422                	ld	s0,8(sp)
    700000be:	0141                	addi	sp,sp,16
    700000c0:	8082                	ret

00000000700000c2 <putchar>:
    700000c2:	1101                	addi	sp,sp,-32
    700000c4:	ec22                	sd	s0,24(sp)
    700000c6:	1000                	addi	s0,sp,32
    700000c8:	87aa                	mv	a5,a0
    700000ca:	fef407a3          	sb	a5,-17(s0)
    700000ce:	0001                	nop
    700000d0:	00000797          	auipc	a5,0x0
    700000d4:	16878793          	addi	a5,a5,360 # 70000238 <uart>
    700000d8:	639c                	ld	a5,0(a5)
    700000da:	07d1                	addi	a5,a5,20
    700000dc:	439c                	lw	a5,0(a5)
    700000de:	2781                	sext.w	a5,a5
    700000e0:	0207f793          	andi	a5,a5,32
    700000e4:	2781                	sext.w	a5,a5
    700000e6:	d7ed                	beqz	a5,700000d0 <putchar+0xe>
    700000e8:	00000797          	auipc	a5,0x0
    700000ec:	15078793          	addi	a5,a5,336 # 70000238 <uart>
    700000f0:	639c                	ld	a5,0(a5)
    700000f2:	fef44703          	lbu	a4,-17(s0)
    700000f6:	2701                	sext.w	a4,a4
    700000f8:	c398                	sw	a4,0(a5)
    700000fa:	0001                	nop
    700000fc:	853e                	mv	a0,a5
    700000fe:	6462                	ld	s0,24(sp)
    70000100:	6105                	addi	sp,sp,32
    70000102:	8082                	ret

0000000070000104 <data_available>:
    70000104:	1141                	addi	sp,sp,-16
    70000106:	e422                	sd	s0,8(sp)
    70000108:	0800                	addi	s0,sp,16
    7000010a:	00000797          	auipc	a5,0x0
    7000010e:	12e78793          	addi	a5,a5,302 # 70000238 <uart>
    70000112:	639c                	ld	a5,0(a5)
    70000114:	07d1                	addi	a5,a5,20
    70000116:	439c                	lw	a5,0(a5)
    70000118:	2781                	sext.w	a5,a5
    7000011a:	8b85                	andi	a5,a5,1
    7000011c:	2781                	sext.w	a5,a5
    7000011e:	853e                	mv	a0,a5
    70000120:	6422                	ld	s0,8(sp)
    70000122:	0141                	addi	sp,sp,16
    70000124:	8082                	ret

0000000070000126 <getchar>:
    70000126:	1141                	addi	sp,sp,-16
    70000128:	e406                	sd	ra,8(sp)
    7000012a:	e022                	sd	s0,0(sp)
    7000012c:	0800                	addi	s0,sp,16
    7000012e:	0001                	nop
    70000130:	fd5ff0ef          	jal	ra,70000104 <data_available>
    70000134:	87aa                	mv	a5,a0
    70000136:	dfed                	beqz	a5,70000130 <getchar+0xa>
    70000138:	00000797          	auipc	a5,0x0
    7000013c:	10078793          	addi	a5,a5,256 # 70000238 <uart>
    70000140:	639c                	ld	a5,0(a5)
    70000142:	439c                	lw	a5,0(a5)
    70000144:	2781                	sext.w	a5,a5
    70000146:	0ff7f793          	zext.b	a5,a5
    7000014a:	2781                	sext.w	a5,a5
    7000014c:	853e                	mv	a0,a5
    7000014e:	60a2                	ld	ra,8(sp)
    70000150:	6402                	ld	s0,0(sp)
    70000152:	0141                	addi	sp,sp,16
    70000154:	8082                	ret

0000000070000156 <puts>:
    70000156:	1101                	addi	sp,sp,-32
    70000158:	ec06                	sd	ra,24(sp)
    7000015a:	e822                	sd	s0,16(sp)
    7000015c:	1000                	addi	s0,sp,32
    7000015e:	fea43423          	sd	a0,-24(s0)
    70000162:	a821                	j	7000017a <puts+0x24>
    70000164:	fe843783          	ld	a5,-24(s0)
    70000168:	00178713          	addi	a4,a5,1
    7000016c:	fee43423          	sd	a4,-24(s0)
    70000170:	0007c783          	lbu	a5,0(a5)
    70000174:	853e                	mv	a0,a5
    70000176:	f4dff0ef          	jal	ra,700000c2 <putchar>
    7000017a:	fe843783          	ld	a5,-24(s0)
    7000017e:	0007c783          	lbu	a5,0(a5)
    70000182:	f3ed                	bnez	a5,70000164 <puts+0xe>
    70000184:	4529                	li	a0,10
    70000186:	f3dff0ef          	jal	ra,700000c2 <putchar>
    7000018a:	0001                	nop
    7000018c:	60e2                	ld	ra,24(sp)
    7000018e:	6442                	ld	s0,16(sp)
    70000190:	6105                	addi	sp,sp,32
    70000192:	8082                	ret

0000000070000194 <main>:
    70000194:	7139                	addi	sp,sp,-64
    70000196:	fc06                	sd	ra,56(sp)
    70000198:	f822                	sd	s0,48(sp)
    7000019a:	0080                	addi	s0,sp,64
    7000019c:	87aa                	mv	a5,a0
    7000019e:	fcf42623          	sw	a5,-52(s0)
    700001a2:	f03ff0ef          	jal	ra,700000a4 <enable_fifos>
    700001a6:	67f1                	lui	a5,0x1c
    700001a8:	20078593          	addi	a1,a5,512 # 1c200 <STACK_SIZE+0x1ba00>
    700001ac:	02faf7b7          	lui	a5,0x2faf
    700001b0:	08078513          	addi	a0,a5,128 # 2faf080 <STACK_SIZE+0x2fae880>
    700001b4:	e67ff0ef          	jal	ra,7000001a <set_baudrate>
    700001b8:	00000797          	auipc	a5,0x0
    700001bc:	06078793          	addi	a5,a5,96 # 70000218 <main+0x84>
    700001c0:	fef43423          	sd	a5,-24(s0)
    700001c4:	a821                	j	700001dc <main+0x48>
    700001c6:	fe843783          	ld	a5,-24(s0)
    700001ca:	00178713          	addi	a4,a5,1
    700001ce:	fee43423          	sd	a4,-24(s0)
    700001d2:	0007c783          	lbu	a5,0(a5)
    700001d6:	853e                	mv	a0,a5
    700001d8:	eebff0ef          	jal	ra,700000c2 <putchar>
    700001dc:	fe843783          	ld	a5,-24(s0)
    700001e0:	0007c783          	lbu	a5,0(a5)
    700001e4:	f3ed                	bnez	a5,700001c6 <main+0x32>
    700001e6:	00000797          	auipc	a5,0x0
    700001ea:	04278793          	addi	a5,a5,66 # 70000228 <main+0x94>
    700001ee:	fef43023          	sd	a5,-32(s0)
    700001f2:	f35ff0ef          	jal	ra,70000126 <getchar>
    700001f6:	87aa                	mv	a5,a0
    700001f8:	fcf40fa3          	sb	a5,-33(s0)
    700001fc:	fe043783          	ld	a5,-32(s0)
    70000200:	079d                	addi	a5,a5,7
    70000202:	fdf44703          	lbu	a4,-33(s0)
    70000206:	00e78023          	sb	a4,0(a5)
    7000020a:	fe043503          	ld	a0,-32(s0)
    7000020e:	f49ff0ef          	jal	ra,70000156 <puts>
    70000212:	b7c5                	j	700001f2 <main+0x5e>

Disassembly of section .rodata:

0000000070000218 <.rodata>:
    70000218:	6548                	ld	a0,136(a0)
    7000021a:	6c6c                	ld	a1,216(s0)
    7000021c:	6f57206f          	j	70073110 <uart+0x72ed8>
    70000220:	6c72                	ld	s8,280(sp)
    70000222:	2164                	fld	fs1,192(a0)
    70000224:	000a                	c.slli	zero,0x2
    70000226:	0000                	unimp
    70000228:	7974                	ld	a3,240(a0)
    7000022a:	6570                	ld	a2,200(a0)
    7000022c:	3a64                	fld	fs1,240(a2)
    7000022e:	2020                	fld	fs0,64(s0)
	...

Disassembly of section .sdata:

0000000070000238 <uart>:
    70000238:	0000                	unimp
    7000023a:	6230                	ld	a2,64(a2)
    7000023c:	0000                	unimp
	...

Disassembly of section .riscv.attributes:

0000000000000000 <.riscv.attributes>:
   0:	3841                	addiw	a6,a6,-16
   2:	0000                	unimp
   4:	7200                	ld	s0,32(a2)
   6:	7369                	lui	t1,0xffffa
   8:	01007663          	bgeu	zero,a6,14 <STACK_SIZE-0x7ec>
   c:	002e                	c.slli	zero,0xb
   e:	0000                	unimp
  10:	1004                	addi	s1,sp,32
  12:	7205                	lui	tp,0xfffe1
  14:	3676                	fld	fa2,376(sp)
  16:	6934                	ld	a3,80(a0)
  18:	7032                	.2byte	0x7032
  1a:	5f30                	lw	a2,120(a4)
  1c:	326d                	addiw	tp,tp,-5 # fffffffffffe0ffb <_end+0xffffffff7ffe07fb>
  1e:	3070                	fld	fa2,224(s0)
  20:	615f 7032 5f30      	.byte	0x5f, 0x61, 0x32, 0x70, 0x30, 0x5f
  26:	3266                	fld	ft4,120(sp)
  28:	3070                	fld	fa2,224(s0)
  2a:	645f 7032 5f30      	.byte	0x5f, 0x64, 0x32, 0x70, 0x30, 0x5f
  30:	30703263          	.4byte	0x30703263
  34:	0800                	addi	s0,sp,16
  36:	0a01                	addi	s4,s4,0
  38:	0b              	Address 0x0000000000000038 is out of bounds.


Disassembly of section .comment:

0000000000000000 <.comment>:
   0:	3a434347          	fmsub.d	ft6,ft6,ft4,ft7,rmm
   4:	2820                	fld	fs0,80(s0)
   6:	61653167          	.4byte	0x61653167
   a:	3739                	addiw	a4,a4,-18
   c:	6538                	ld	a4,72(a0)
   e:	36363033          	.4byte	0x36363033
  12:	2029                	.2byte	0x2029
  14:	3231                	addiw	tp,tp,-20 # ffffffffffffffec <_end+0xffffffff7ffff7ec>
  16:	312e                	fld	ft2,232(sp)
  18:	302e                	fld	ft0,232(sp)
	...
