
riscv-stack-mission:     file format elf64-littleriscv

Contents of section .text:
 80000000 f32240f1 639c0200 17110000 13010195  ."@.c...........
 80000010 6f00600b 01000100 010009a0 01000100  o.`.............
 80000020 01007300 5010ddbf 011122ec 0010aa87  ..s.P.....".....
 80000030 a307f4fe 97070000 9387c711 9c630347  .............c.G
 80000040 f4fe0127 98c30100 3e856264 05618280  ...'....>.bd.a..
 80000050 411122e4 00089707 00009387 a70f9c63  A."............c
 80000060 d1079c43 8127858b 81273e85 22644101  ...C.'...'>."dA.
 80000070 82804111 06e422e0 00080100 eff05ffd  ..A..."......._.
 80000080 aa87eddf 97070000 9387c70c 9c639c43  .............c.C
 80000090 812793f7 f70f8127 3e85a260 02644101  .'.....'>..`.dA.
 800000a0 82800111 06ec22e8 0010aa87 a307f4fe  ......".........
 800000b0 8347f4fe 3e85eff0 3ff78547 3e85e260  .G..>...?..G>..`
 800000c0 42640561 82807971 06f422f0 0018aa87  Bd.a..yq..".....
 800000d0 232ef4fc 97070000 9387c706 2334f4fe  #...........#4..
 800000e0 21a88337 84fe1387 17002334 e4fe83c7  !..7......#4....
 800000f0 07003e85 eff05ff3 833784fe 83c70700  ..>..._..7......
 80000100 edf31305 1006eff0 dff9aa87 a303f4fe  ................
 80000110 13052006 eff0fff8 aa872303 f4fe1305  .. .......#.....
 80000120 3006eff0 1ff8aa87 a302f4fe 73005010  0...........s.P.
 80000130 81473e85 a2700274 45618280           .G>..p.tEa..    
Contents of section .rodata:
 80000140 4e657720 70726f67 72616d21 0a00      New program!..  
Contents of section .sdata:
 80000150 000000c0 00000000                    ........        
Contents of section .riscv.attributes:
 0000 41380000 00726973 63760001 2e000000  A8...riscv......
 0010 04100572 76363469 3270305f 6d327030  ...rv64i2p0_m2p0
 0020 5f613270 305f6632 70305f64 3270305f  _a2p0_f2p0_d2p0_
 0030 63327030 0008010a 0b                 c2p0.....       
Contents of section .comment:
 0000 4743433a 20286731 65613937 38653330  GCC: (g1ea978e30
 0010 36362920 31322e31 2e3000             66) 12.1.0.     

Disassembly of section .text:

0000000080000000 <_start>:
    80000000:	f14022f3          	csrr	t0,mhartid
    80000004:	00029c63          	bnez	t0,8000001c <park>
    80000008:	00001117          	auipc	sp,0x1
    8000000c:	95010113          	addi	sp,sp,-1712 # 80000958 <_end>
    80000010:	0b60006f          	j	800000c6 <main>
    80000014:	0001                	nop
    80000016:	0001                	nop
    80000018:	0001                	nop
    8000001a:	a009                	j	8000001c <park>

000000008000001c <park>:
    8000001c:	0001                	nop
    8000001e:	0001                	nop
    80000020:	0001                	nop
    80000022:	10500073          	wfi
    80000026:	bfdd                	j	8000001c <park>

0000000080000028 <putchar>:
    80000028:	1101                	addi	sp,sp,-32
    8000002a:	ec22                	sd	s0,24(sp)
    8000002c:	1000                	addi	s0,sp,32
    8000002e:	87aa                	mv	a5,a0
    80000030:	fef407a3          	sb	a5,-17(s0)
    80000034:	00000797          	auipc	a5,0x0
    80000038:	11c78793          	addi	a5,a5,284 # 80000150 <uart>
    8000003c:	639c                	ld	a5,0(a5)
    8000003e:	fef44703          	lbu	a4,-17(s0)
    80000042:	2701                	sext.w	a4,a4
    80000044:	c398                	sw	a4,0(a5)
    80000046:	0001                	nop
    80000048:	853e                	mv	a0,a5
    8000004a:	6462                	ld	s0,24(sp)
    8000004c:	6105                	addi	sp,sp,32
    8000004e:	8082                	ret

0000000080000050 <data_available>:
    80000050:	1141                	addi	sp,sp,-16
    80000052:	e422                	sd	s0,8(sp)
    80000054:	0800                	addi	s0,sp,16
    80000056:	00000797          	auipc	a5,0x0
    8000005a:	0fa78793          	addi	a5,a5,250 # 80000150 <uart>
    8000005e:	639c                	ld	a5,0(a5)
    80000060:	07d1                	addi	a5,a5,20
    80000062:	439c                	lw	a5,0(a5)
    80000064:	2781                	sext.w	a5,a5
    80000066:	8b85                	andi	a5,a5,1
    80000068:	2781                	sext.w	a5,a5
    8000006a:	853e                	mv	a0,a5
    8000006c:	6422                	ld	s0,8(sp)
    8000006e:	0141                	addi	sp,sp,16
    80000070:	8082                	ret

0000000080000072 <getchar>:
    80000072:	1141                	addi	sp,sp,-16
    80000074:	e406                	sd	ra,8(sp)
    80000076:	e022                	sd	s0,0(sp)
    80000078:	0800                	addi	s0,sp,16
    8000007a:	0001                	nop
    8000007c:	fd5ff0ef          	jal	ra,80000050 <data_available>
    80000080:	87aa                	mv	a5,a0
    80000082:	dfed                	beqz	a5,8000007c <getchar+0xa>
    80000084:	00000797          	auipc	a5,0x0
    80000088:	0cc78793          	addi	a5,a5,204 # 80000150 <uart>
    8000008c:	639c                	ld	a5,0(a5)
    8000008e:	439c                	lw	a5,0(a5)
    80000090:	2781                	sext.w	a5,a5
    80000092:	0ff7f793          	zext.b	a5,a5
    80000096:	2781                	sext.w	a5,a5
    80000098:	853e                	mv	a0,a5
    8000009a:	60a2                	ld	ra,8(sp)
    8000009c:	6402                	ld	s0,0(sp)
    8000009e:	0141                	addi	sp,sp,16
    800000a0:	8082                	ret

00000000800000a2 <endfunc>:
    800000a2:	1101                	addi	sp,sp,-32
    800000a4:	ec06                	sd	ra,24(sp)
    800000a6:	e822                	sd	s0,16(sp)
    800000a8:	1000                	addi	s0,sp,32
    800000aa:	87aa                	mv	a5,a0
    800000ac:	fef407a3          	sb	a5,-17(s0)
    800000b0:	fef44783          	lbu	a5,-17(s0)
    800000b4:	853e                	mv	a0,a5
    800000b6:	f73ff0ef          	jal	ra,80000028 <putchar>
    800000ba:	4785                	li	a5,1
    800000bc:	853e                	mv	a0,a5
    800000be:	60e2                	ld	ra,24(sp)
    800000c0:	6442                	ld	s0,16(sp)
    800000c2:	6105                	addi	sp,sp,32
    800000c4:	8082                	ret

00000000800000c6 <main>:
    800000c6:	7179                	addi	sp,sp,-48
    800000c8:	f406                	sd	ra,40(sp)
    800000ca:	f022                	sd	s0,32(sp)
    800000cc:	1800                	addi	s0,sp,48
    800000ce:	87aa                	mv	a5,a0
    800000d0:	fcf42e23          	sw	a5,-36(s0)
    800000d4:	00000797          	auipc	a5,0x0
    800000d8:	06c78793          	addi	a5,a5,108 # 80000140 <main+0x7a>
    800000dc:	fef43423          	sd	a5,-24(s0)
    800000e0:	a821                	j	800000f8 <main+0x32>
    800000e2:	fe843783          	ld	a5,-24(s0)
    800000e6:	00178713          	addi	a4,a5,1
    800000ea:	fee43423          	sd	a4,-24(s0)
    800000ee:	0007c783          	lbu	a5,0(a5)
    800000f2:	853e                	mv	a0,a5
    800000f4:	f35ff0ef          	jal	ra,80000028 <putchar>
    800000f8:	fe843783          	ld	a5,-24(s0)
    800000fc:	0007c783          	lbu	a5,0(a5)
    80000100:	f3ed                	bnez	a5,800000e2 <main+0x1c>
    80000102:	06100513          	li	a0,97
    80000106:	f9dff0ef          	jal	ra,800000a2 <endfunc>
    8000010a:	87aa                	mv	a5,a0
    8000010c:	fef403a3          	sb	a5,-25(s0)
    80000110:	06200513          	li	a0,98
    80000114:	f8fff0ef          	jal	ra,800000a2 <endfunc>
    80000118:	87aa                	mv	a5,a0
    8000011a:	fef40323          	sb	a5,-26(s0)
    8000011e:	06300513          	li	a0,99
    80000122:	f81ff0ef          	jal	ra,800000a2 <endfunc>
    80000126:	87aa                	mv	a5,a0
    80000128:	fef402a3          	sb	a5,-27(s0)
    8000012c:	10500073          	wfi
    80000130:	4781                	li	a5,0
    80000132:	853e                	mv	a0,a5
    80000134:	70a2                	ld	ra,40(sp)
    80000136:	7402                	ld	s0,32(sp)
    80000138:	6145                	addi	sp,sp,48
    8000013a:	8082                	ret

Disassembly of section .rodata:

0000000080000140 <.rodata>:
    80000140:	654e                	ld	a0,208(sp)
    80000142:	72702077          	.4byte	0x72702077
    80000146:	6172676f          	jal	a4,80026f5c <_end+0x26604>
    8000014a:	216d                	addiw	sp,sp,27
    8000014c:	000a                	c.slli	zero,0x2

Disassembly of section .sdata:

0000000080000150 <uart>:
    80000150:	0000                	unimp
    80000152:	c000                	sw	s0,0(s0)
    80000154:	0000                	unimp
	...

Disassembly of section .riscv.attributes:

0000000000000000 <.riscv.attributes>:
   0:	3841                	addiw	a6,a6,-16
   2:	0000                	unimp
   4:	7200                	ld	s0,32(a2)
   6:	7369                	lui	t1,0xffffa
   8:	01007663          	bgeu	zero,a6,14 <STACK_SIZE-0x7ec>
   c:	002e                	c.slli	zero,0xb
   e:	0000                	unimp
  10:	1004                	addi	s1,sp,32
  12:	7205                	lui	tp,0xfffe1
  14:	3676                	fld	fa2,376(sp)
  16:	6934                	ld	a3,80(a0)
  18:	7032                	.2byte	0x7032
  1a:	5f30                	lw	a2,120(a4)
  1c:	326d                	addiw	tp,tp,-5 # fffffffffffe0ffb <_end+0xffffffff7ffe06a3>
  1e:	3070                	fld	fa2,224(s0)
  20:	615f 7032 5f30      	.byte	0x5f, 0x61, 0x32, 0x70, 0x30, 0x5f
  26:	3266                	fld	ft4,120(sp)
  28:	3070                	fld	fa2,224(s0)
  2a:	645f 7032 5f30      	.byte	0x5f, 0x64, 0x32, 0x70, 0x30, 0x5f
  30:	30703263          	.4byte	0x30703263
  34:	0800                	addi	s0,sp,16
  36:	0a01                	addi	s4,s4,0
  38:	0b              	Address 0x0000000000000038 is out of bounds.


Disassembly of section .comment:

0000000000000000 <.comment>:
   0:	3a434347          	fmsub.d	ft6,ft6,ft4,ft7,rmm
   4:	2820                	fld	fs0,80(s0)
   6:	61653167          	.4byte	0x61653167
   a:	3739                	addiw	a4,a4,-18
   c:	6538                	ld	a4,72(a0)
   e:	36363033          	.4byte	0x36363033
  12:	2029                	.2byte	0x2029
  14:	3231                	addiw	tp,tp,-20 # ffffffffffffffec <_end+0xffffffff7ffff694>
  16:	312e                	fld	ft2,232(sp)
  18:	302e                	fld	ft0,232(sp)
	...
